; range: 8c0a7100 - 8c0a7310

8c0a7100  66 0f        mov.l r6,@(r0,r15)
8c0a7102  66 0e        mov.l r6,@(r0,r14)
8c0a7104  d7 af        bra 0x8c0a70b6
8c0a7106  09 00        _nop
8c0a7108  50 e0        mov #0x50,r0
8c0a710a  ee 06        mov.l @(r0,r14),r6
8c0a710c  66 0f        mov.l r6,@(r0,r15)
8c0a710e  d2 af        bra 0x8c0a70b6
8c0a7110  09 00        _nop
8c0a7112  09 d2        mov.l 0x8c0a7138,r2
8c0a7114  0b 42        jsr @r2
8c0a7116  ec 54        _mov.l @(0x30,r14),r4
8c0a7118  02 54        mov.l @(0x8,r0),r4
8c0a711a  f3 65        mov r15,r5
8c0a711c  07 d2        mov.l 0x8c0a713c,r2
8c0a711e  0b 42        jsr @r2
8c0a7120  44 75        _add #0x44,r5
8c0a7122  08 20        tst r0,r0
8c0a7124  e9 8b        bf 0x8c0a70fa
8c0a7126  ef af        bra 0x8c0a7108
8c0a7128  09 00        _nop
8c0a712a  00           ?? 00h
8c0a712b  00           ?? 00h
8c0a712c  ff ff 1f f8  undefined4 F81FFFFFh
8c0a7130  00 00 00 06  undefined4 06000000h
8c0a7134  92 52 20 8c  addr 8c205292
8c0a7138  16 9f 04 8c  addr 8c049f16
8c0a713c  8e 58 0a 8c  addr 8c0a588e
8c0a7140  86 2f        mov.l r8,@-r15
8c0a7142  96 2f        mov.l r9,@-r15
8c0a7144  a6 2f        mov.l r10,@-r15
8c0a7146  b6 2f        mov.l r11,@-r15
8c0a7148  c6 2f        mov.l r12,@-r15
8c0a714a  d6 2f        mov.l r13,@-r15
8c0a714c  e6 2f        mov.l r14,@-r15
8c0a714e  22 4f        sts.l PR,@-r15
8c0a7150  f8 7f        add #-0x8,r15
8c0a7152  4f 52        mov.l @(0x3c,r4),r2
8c0a7154  63 6b        mov r6,r11
8c0a7156  71 1f        mov.l r7,@(0x4,r15)
8c0a7158  53 6a        mov r5,r10
8c0a715a  23 60        mov r2,r0
8c0a715c  01 c8        tst #0x1,r0
8c0a715e  43 69        mov r4,r9
8c0a7160  00 e8        mov #0x0,r8
8c0a7162  02 8d        bt/s 0x8c0a716a
8c0a7164  00 ee        _mov #0x0,r14
8c0a7166  89 a0        bra 0x8c0a727c
8c0a7168  09 00        _nop
8c0a716a  23 60        mov r2,r0
8c0a716c  08 c8        tst #0x8,r0
8c0a716e  01 8b        bf 0x8c0a7174
8c0a7170  82 a0        bra 0x8c0a7278
8c0a7172  09 00        _nop
8c0a7174  23 60        mov r2,r0
8c0a7176  10 c8        tst #0x10,r0
8c0a7178  00 8b        bf 0x8c0a717c
8c0a717a  02 ee        mov #0x2,r14
8c0a717c  46 d2        mov.l 0x8c0a7298,r2
8c0a717e  24 e4        mov #0x24,r4
8c0a7180  0b 42        jsr @r2
8c0a7182  ff 7e        _add #-0x1,r14
8c0a7184  45 d2        mov.l 0x8c0a729c,r2
8c0a7186  00 e5        mov #0x0,r5
8c0a7188  24 e6        mov #0x24,r6
8c0a718a  03 6c        mov r0,r12
8c0a718c  0b 42        jsr @r2
8c0a718e  03 64        _mov r0,r4
8c0a7190  b1 52        mov.l @(0x4,r11),r2
8c0a7192  22 2c        mov.l r2,@r12
8c0a7194  b2 52        mov.l @(0x8,r11),r2
8c0a7196  27 1c        mov.l r2,@(0x1c,r12)
8c0a7198  b3 52        mov.l @(0xc,r11),r2
8c0a719a  21 1c        mov.l r2,@(0x4,r12)
8c0a719c  b4 52        mov.l @(0x10,r11),r2
8c0a719e  22 1c        mov.l r2,@(0x8,r12)
8c0a71a0  b5 52        mov.l @(0x14,r11),r2
8c0a71a2  23 1c        mov.l r2,@(0xc,r12)
8c0a71a4  b6 52        mov.l @(0x18,r11),r2
8c0a71a6  24 1c        mov.l r2,@(0x10,r12)
8c0a71a8  b6 52        mov.l @(0x18,r11),r2
8c0a71aa  9f 50        mov.l @(0x3c,r9),r0
8c0a71ac  b1 54        mov.l @(0x4,r11),r4
8c0a71ae  b3 55        mov.l @(0xc,r11),r5
8c0a71b0  01 c8        tst #0x1,r0
8c0a71b2  b4 56        mov.l @(0x10,r11),r6
8c0a71b4  40 e0        mov #0x40,r0
8c0a71b6  b5 57        mov.l @(0x14,r11),r7
8c0a71b8  22 2f        mov.l r2,@r15
8c0a71ba  39 d2        mov.l 0x8c0a72a0,r2
8c0a71bc  0b 42        jsr @r2
8c0a71be  9e 0d        _mov.l @(r0,r9),r13
8c0a71c0  e7 00        mul.l r14,r0
8c0a71c2  e8 2e        tst r14,r14
8c0a71c4  1a 02        sts MACL,r2
8c0a71c6  60 8d        bt/s 0x8c0a728a
8c0a71c8  2c 3d        _add r2,r13
8c0a71ca  9f 52        mov.l @(0x3c,r9),r2
8c0a71cc  10 e3        mov #0x10,r3
8c0a71ce  3b 22        or r3,r2
8c0a71d0  2f 19        mov.l r2,@(0x3c,r9)
8c0a71d2  c4 52        mov.l @(0x10,r12),r2
8c0a71d4  c2 64        mov.l @r12,r4
8c0a71d6  c1 55        mov.l @(0x4,r12),r5
8c0a71d8  c2 56        mov.l @(0x8,r12),r6
8c0a71da  c3 57        mov.l @(0xc,r12),r7
8c0a71dc  30 d3        mov.l 0x8c0a72a0,r3
8c0a71de  d5 1c        mov.l r13,@(0x14,r12)
8c0a71e0  0b 43        jsr @r3
8c0a71e2  22 2f        _mov.l r2,@r15
8c0a71e4  2f d2        mov.l 0x8c0a72a4,r2
8c0a71e6  00 e4        mov #0x0,r4
8c0a71e8  06 1c        mov.l r0,@(0x18,r12)
8c0a71ea  0b 42        jsr @r2
8c0a71ec  c5 1a        _mov.l r12,@(0x14,r10)
8c0a71ee  08 20        tst r0,r0
8c0a71f0  03 6e        mov r0,r14
8c0a71f2  4f 89        bt 0x8c0a7294
8c0a71f4  2c d2        mov.l 0x8c0a72a8,r2
8c0a71f6  c3 65        mov r12,r5
8c0a71f8  0b 42        jsr @r2
8c0a71fa  e3 64        _mov r14,r4
8c0a71fc  08 20        tst r0,r0
8c0a71fe  03 68        mov r0,r8
8c0a7200  23 8f        bf/s 0x8c0a724a
8c0a7202  e2 1a        _mov.l r14,@(0x8,r10)
8c0a7204  a5 54        mov.l @(0x14,r10),r4
8c0a7206  48 24        tst r4,r4
8c0a7208  1f 89        bt 0x8c0a724a
8c0a720a  a2 52        mov.l @(0x8,r10),r2
8c0a720c  28 22        tst r2,r2
8c0a720e  4f 89        bt 0x8c0a72b0
8c0a7210  40 e0        mov #0x40,r0
8c0a7212  45 55        mov.l @(0x14,r4),r5
8c0a7214  9e 06        mov.l @(r0,r9),r6
8c0a7216  50 36        cmp/eq r5,r6
8c0a7218  6e 89        bt 0x8c0a72f8
8c0a721a  46 52        mov.l @(0x18,r4),r2
8c0a721c  2c 36        add r2,r6
8c0a721e  50 36        cmp/eq r5,r6
8c0a7220  64 89        bt 0x8c0a72ec
8c0a7222  00 e3        mov #0x0,r3
8c0a7224  35 14        mov.l r3,@(0x14,r4)
8c0a7226  a2 54        mov.l @(0x8,r10),r4
8c0a7228  48 24        tst r4,r4
8c0a722a  5d 89        bt 0x8c0a72e8
8c0a722c  42 52        mov.l @(0x8,r4),r2
8c0a722e  03 e5        mov #0x3,r5
8c0a7230  0c 72        add #0xc,r2
8c0a7232  22 66        mov.l @r2,r6
8c0a7234  22 57        mov.l @(0x8,r2),r7
8c0a7236  0b 47        jsr @r7
8c0a7238  6c 34        _add r6,r4
8c0a723a  a5 54        mov.l @(0x14,r10),r4
8c0a723c  00 e3        mov #0x0,r3
8c0a723e  32 1a        mov.l r3,@(0x8,r10)
8c0a7240  1a d2        mov.l 0x8c0a72ac,r2
8c0a7242  0b 42        jsr @r2
8c0a7244  09 00        _nop
8c0a7246  00 e3        mov #0x0,r3
8c0a7248  35 1a        mov.l r3,@(0x14,r10)
8c0a724a  f1 53        mov.l @(0x4,r15),r3
8c0a724c  20 e0        mov #0x20,r0
8c0a724e  32 2a        mov.l r3,@r10
8c0a7250  b2 62        mov.l @r11,r2
8c0a7252  21 1a        mov.l r2,@(0x4,r10)
8c0a7254  b6 f8        fmov.s @(r0,r11),fr8
8c0a7256  0c e0        mov #0xc,r0
8c0a7258  87 fa        fmov fr8,@(r0,r10)
8c0a725a  24 e0        mov #0x24,r0
8c0a725c  b6 f8        fmov.s @(r0,r11),fr8
8c0a725e  10 e0        mov #0x10,r0
8c0a7260  87 fa        fmov fr8,@(r0,r10)
8c0a7262  83 60        mov r8,r0
8c0a7264  08 7f        add #0x8,r15
8c0a7266  26 4f        lds.l @r15+,PR
8c0a7268  f6 6e        mov.l @r15+,r14
8c0a726a  f6 6d        mov.l @r15+,r13
8c0a726c  f6 6c        mov.l @r15+,r12
8c0a726e  f6 6b        mov.l @r15+,r11
8c0a7270  f6 6a        mov.l @r15+,r10
8c0a7272  f6 69        mov.l @r15+,r9
8c0a7274  0b 00        rts
8c0a7276  f6 68        _mov.l @r15+,r8
8c0a7278  80 af        bra 0x8c0a717c
8c0a727a  01 ee        _mov #0x1,r14
8c0a727c  23 60        mov r2,r0
8c0a727e  08 c8        tst #0x8,r0
8c0a7280  01 89        bt 0x8c0a7286
8c0a7282  7b af        bra 0x8c0a717c
8c0a7284  09 00        _nop
8c0a7286  79 af        bra 0x8c0a717c
8c0a7288  01 ee        _mov #0x1,r14
8c0a728a  9f 52        mov.l @(0x3c,r9),r2
8c0a728c  08 e3        mov #0x8,r3
8c0a728e  3b 22        or r3,r2
8c0a7290  9f af        bra 0x8c0a71d2
8c0a7292  2f 19        _mov.l r2,@(0x3c,r9)
8c0a7294  b6 af        bra 0x8c0a7204
8c0a7296  e2 1a        _mov.l r14,@(0x8,r10)
8c0a7298  14 ee 09 8c  addr 8c09ee14
8c0a729c  fc ed 09 8c  addr 8c09edfc
8c0a72a0  38 54 0a 8c  addr 8c0a5438
8c0a72a4  48 53 0a 8c  addr 8c0a5348
8c0a72a8  d4 54 0a 8c  addr 8c0a54d4
8c0a72ac  3c ec 09 8c  addr 8c09ec3c
8c0a72b0  45 52        mov.l @(0x14,r4),r2
8c0a72b2  28 22        tst r2,r2
8c0a72b4  c4 89        bt 0x8c0a7240
8c0a72b6  40 e0        mov #0x40,r0
8c0a72b8  45 55        mov.l @(0x14,r4),r5
8c0a72ba  9e 06        mov.l @(r0,r9),r6
8c0a72bc  50 36        cmp/eq r5,r6
8c0a72be  0d 89        bt 0x8c0a72dc
8c0a72c0  46 52        mov.l @(0x18,r4),r2
8c0a72c2  2c 36        add r2,r6
8c0a72c4  50 36        cmp/eq r5,r6
8c0a72c6  03 89        bt 0x8c0a72d0
8c0a72c8  00 e3        mov #0x0,r3
8c0a72ca  35 14        mov.l r3,@(0x14,r4)
8c0a72cc  b8 af        bra 0x8c0a7240
8c0a72ce  a5 54        _mov.l @(0x14,r10),r4
8c0a72d0  9f 52        mov.l @(0x3c,r9),r2
8c0a72d2  ef e3        mov #-0x11,r3
8c0a72d4  39 22        and r3,r2
8c0a72d6  2f 19        mov.l r2,@(0x3c,r9)
8c0a72d8  f6 af        bra 0x8c0a72c8
8c0a72da  a5 54        _mov.l @(0x14,r10),r4
8c0a72dc  9f 52        mov.l @(0x3c,r9),r2
8c0a72de  f7 e3        mov #-0x9,r3
8c0a72e0  39 22        and r3,r2
8c0a72e2  2f 19        mov.l r2,@(0x3c,r9)
8c0a72e4  f0 af        bra 0x8c0a72c8
8c0a72e6  a5 54        _mov.l @(0x14,r10),r4
8c0a72e8  a8 af        bra 0x8c0a723c
8c0a72ea  a5 54        _mov.l @(0x14,r10),r4
8c0a72ec  9f 52        mov.l @(0x3c,r9),r2
8c0a72ee  ef e3        mov #-0x11,r3
8c0a72f0  39 22        and r3,r2
8c0a72f2  2f 19        mov.l r2,@(0x3c,r9)
8c0a72f4  95 af        bra 0x8c0a7222
8c0a72f6  a5 54        _mov.l @(0x14,r10),r4
8c0a72f8  9f 52        mov.l @(0x3c,r9),r2
8c0a72fa  f7 e3        mov #-0x9,r3
8c0a72fc  39 22        and r3,r2
8c0a72fe  2f 19        mov.l r2,@(0x3c,r9)
8c0a7300  8f af        bra 0x8c0a7222
8c0a7302  a5 54        _mov.l @(0x14,r10),r4
8c0a7304  e6 2f        mov.l r14,@-r15
8c0a7306  22 4f        sts.l PR,@-r15
8c0a7308  43 67        mov r4,r7
8c0a730a  55 54        mov.l @(0x14,r5),r4
8c0a730c  48 24        tst r4,r4
8c0a730e  20 8d        bt/s 0x8c0a7352
8c0a7310  53 6e        _mov r5,r14
