; range: 8c093900 - 8c093c00

8c093900  23 60        mov r2,r0
8c093902  15 88        cmp/eq #0x15,r0
8c093904  01 8b        bf 0x8c09390a
8c093906  03 a1        bra 0x8c093b10
8c093908  09 00        _nop
8c09390a  23 60        mov r2,r0
8c09390c  16 88        cmp/eq #0x16,r0
8c09390e  01 8b        bf 0x8c093914
8c093910  b0 a0        bra 0x8c093a74
8c093912  09 00        _nop
8c093914  23 60        mov r2,r0
8c093916  17 88        cmp/eq #0x17,r0
8c093918  01 8b        bf 0x8c09391e
8c09391a  a3 a0        bra 0x8c093a64
8c09391c  09 00        _nop
8c09391e  23 60        mov r2,r0
8c093920  18 88        cmp/eq #0x18,r0
8c093922  01 8b        bf 0x8c093928
8c093924  88 a0        bra 0x8c093a38
8c093926  09 00        _nop
8c093928  23 60        mov r2,r0
8c09392a  19 88        cmp/eq #0x19,r0
8c09392c  5f 8b        bf 0x8c0939ee
8c09392e  2a 90        mov.w 0x8c093986,r0
8c093930  fe 07        mov.l @(r0,r15),r7
8c093932  29 90        mov.w 0x8c093988,r0
8c093934  7e 02        mov.l @(r0,r7),r2
8c093936  20 66        mov.b @r2,r6
8c093938  6c 60        extu.b r6,r0
8c09393a  01 88        cmp/eq #0x1,r0
8c09393c  03 65        mov r0,r5
8c09393e  46 8b        bf 0x8c0939ce
8c093940  23 90        mov.w 0x8c09398a,r0
8c093942  00 e2        mov #0x0,r2
8c093944  22 96        mov.w 0x8c09398c,r6
8c093946  00 e4        mov #0x0,r4
8c093948  26 0f        mov.l r2,@(r0,r15)
8c09394a  ff e2        mov #-0x1,r2
8c09394c  1f 90        mov.w 0x8c09398e,r0
8c09394e  26 0f        mov.l r2,@(r0,r15)
8c093950  00 e2        mov #0x0,r2
8c093952  1d 90        mov.w 0x8c093990,r0
8c093954  26 0f        mov.l r2,@(r0,r15)
8c093956  73 62        mov r7,r2
8c093958  fe 0d        mov.l @(r0,r15),r13
8c09395a  6c 32        add r6,r2
8c09395c  17 90        mov.w 0x8c09398e,r0
8c09395e  08 e6        mov #0x8,r6
8c093960  2c 34        add r2,r4
8c093962  fe 0c        mov.l @(r0,r15),r12
8c093964  11 90        mov.w 0x8c09398a,r0
8c093966  fe 0b        mov.l @(r0,r15),r11
8c093968  43 52        mov.l @(0xc,r4),r2
8c09396a  23 60        mov r2,r0
8c09396c  01 88        cmp/eq #0x1,r0
8c09396e  01 8b        bf 0x8c093974
8c093970  b1 a2        bra 0x8c093ed6
8c093972  09 00        _nop
8c093974  23 60        mov r2,r0
8c093976  02 88        cmp/eq #0x2,r0
8c093978  12 89        bt 0x8c0939a0
8c09397a  23 60        mov r2,r0
8c09397c  03 88        cmp/eq #0x3,r0
8c09397e  10 8b        bf 0x8c0939a2
8c093980  0e a0        bra 0x8c0939a0
8c093982  09 00        _nop
8c093984  b8 fe        undefined2 FEB8h
8c093986  14 01        undefined2 0114h
8c093988  d8 00        undefined2 00D8h
8c09398a  10 01        undefined2 0110h
8c09398c  ec 22        undefined2 22ECh
8c09398e  0c 01        undefined2 010Ch
8c093990  08 01        undefined2 0108h
8c093992  00           ?? 00h
8c093993  00           ?? 00h
8c093994  80 c8 1b 8c  addr 8c1bc880
8c093998  2e cf 0d 8c  addr 8c0dcf2e
8c09399c  e4 e7 09 8c  addr 8c09e7e4
8c0939a0  01 7b        add #0x1,r11
8c0939a2  10 46        dt r6
8c0939a4  01 7d        add #0x1,r13
8c0939a6  df 8f        bf/s 0x8c093968
8c0939a8  14 74        _add #0x14,r4
8c0939aa  97 90        mov.w 0x8c093adc,r0
8c0939ac  b6 0f        mov.l r11,@(r0,r15)
8c0939ae  96 90        mov.w 0x8c093ade,r0
8c0939b0  c6 0f        mov.l r12,@(r0,r15)
8c0939b2  93 90        mov.w 0x8c093adc,r0
8c0939b4  fe 00        mov.l @(r0,r15),r0
8c0939b6  01 88        cmp/eq #0x1,r0
8c0939b8  09 8b        bf 0x8c0939ce
8c0939ba  91 90        mov.w 0x8c093ae0,r0
8c0939bc  7e 02        mov.l @(r0,r7),r2
8c0939be  8e 90        mov.w 0x8c093ade,r0
8c0939c0  fe 06        mov.l @(r0,r15),r6
8c0939c2  8e 90        mov.w 0x8c093ae2,r0
8c0939c4  66 02        mov.l r6,@(r0,r2)
8c0939c6  8d 90        mov.w 0x8c093ae4,r0
8c0939c8  7e 02        mov.l @(r0,r7),r2
8c0939ca  20 65        mov.b @r2,r5
8c0939cc  5c 65        extu.b r5,r5
8c0939ce  5c 62        extu.b r5,r2
8c0939d0  28 22        tst r2,r2
8c0939d2  14 89        bt 0x8c0939fe
8c0939d4  84 90        mov.w 0x8c093ae0,r0
8c0939d6  07 e1        mov #0x7,r1
8c0939d8  47 d5        mov.l 0x8c093af8,r5
8c0939da  7e 02        mov.l @(r0,r7),r2
8c0939dc  83 90        mov.w 0x8c093ae6,r0
8c0939de  26 0f        mov.l r2,@(r0,r15)
8c0939e0  0b 45        jsr @r5
8c0939e2  e3 62        _mov r14,r2
8c0939e4  03 62        mov r0,r2
8c0939e6  7e 90        mov.w 0x8c093ae6,r0
8c0939e8  fe 06        mov.l @(r0,r15),r6
8c0939ea  44 e0        mov #0x44,r0
8c0939ec  26 06        mov.l r2,@(r0,r6)
8c0939ee  7b 93        mov.w 0x8c093ae8,r3
8c0939f0  3c 3f        add r3,r15
8c0939f2  26 4f        lds.l @r15+,PR
8c0939f4  f6 6e        mov.l @r15+,r14
8c0939f6  f6 6d        mov.l @r15+,r13
8c0939f8  f6 6c        mov.l @r15+,r12
8c0939fa  0b 00        rts
8c0939fc  f6 6b        _mov.l @r15+,r11
8c0939fe  3f d2        mov.l 0x8c093afc,r2
8c093a00  0b 42        jsr @r2
8c093a02  e1 54        _mov.l @(0x4,r14),r4
8c093a04  03 62        mov r0,r2
8c093a06  70 90        mov.w 0x8c093aea,r0
8c093a08  26 0f        mov.l r2,@(r0,r15)
8c093a0a  6f 90        mov.w 0x8c093aec,r0
8c093a0c  fe 04        mov.l @(r0,r15),r4
8c093a0e  6c 90        mov.w 0x8c093aea,r0
8c093a10  4a 52        mov.l @(0x28,r4),r2
8c093a12  60 72        add #0x60,r2
8c093a14  22 66        mov.l @r2,r6
8c093a16  22 55        mov.l @(0x8,r2),r5
8c093a18  39 d2        mov.l 0x8c093b00,r2
8c093a1a  6c 34        add r6,r4
8c093a1c  22 2f        mov.l r2,@r15
8c093a1e  fe 02        mov.l @(r0,r15),r2
8c093a20  0b 45        jsr @r5
8c093a22  21 1f        _mov.l r2,@(0x4,r15)
8c093a24  62 90        mov.w 0x8c093aec,r0
8c093a26  fe 07        mov.l @(r0,r15),r7
8c093a28  5a 90        mov.w 0x8c093ae0,r0
8c093a2a  7e 02        mov.l @(r0,r7),r2
8c093a2c  5d 90        mov.w 0x8c093aea,r0
8c093a2e  fe 06        mov.l @(r0,r15),r6
8c093a30  5d 90        mov.w 0x8c093aee,r0
8c093a32  66 02        mov.l r6,@(r0,r2)
8c093a34  ce af        bra 0x8c0939d4
8c093a36  09 00        _nop
8c093a38  58 90        mov.w 0x8c093aec,r0
8c093a3a  e3 65        mov r14,r5
8c093a3c  31 d3        mov.l 0x8c093b04,r3
8c093a3e  0b 43        jsr @r3
8c093a40  fe 04        _mov.l @(r0,r15),r4
8c093a42  53 90        mov.w 0x8c093aec,r0
8c093a44  07 e1        mov #0x7,r1
8c093a46  2c d5        mov.l 0x8c093af8,r5
8c093a48  fe 07        mov.l @(r0,r15),r7
8c093a4a  49 90        mov.w 0x8c093ae0,r0
8c093a4c  7e 02        mov.l @(r0,r7),r2
8c093a4e  4f 90        mov.w 0x8c093af0,r0
8c093a50  26 0f        mov.l r2,@(r0,r15)
8c093a52  0b 45        jsr @r5
8c093a54  e3 62        _mov r14,r2
8c093a56  03 62        mov r0,r2
8c093a58  4a 90        mov.w 0x8c093af0,r0
8c093a5a  fe 06        mov.l @(r0,r15),r6
8c093a5c  44 e0        mov #0x44,r0
8c093a5e  26 06        mov.l r2,@(r0,r6)
8c093a60  c5 af        bra 0x8c0939ee
8c093a62  09 00        _nop
8c093a64  42 90        mov.w 0x8c093aec,r0
8c093a66  fe 04        mov.l @(r0,r15),r4
8c093a68  43 90        mov.w 0x8c093af2,r0
8c093a6a  27 d3        mov.l 0x8c093b08,r3
8c093a6c  0b 43        jsr @r3
8c093a6e  4e 05        _mov.l @(r0,r4),r5
8c093a70  bd af        bra 0x8c0939ee
8c093a72  09 00        _nop
8c093a74  3a 90        mov.w 0x8c093aec,r0
8c093a76  fe 07        mov.l @(r0,r15),r7
8c093a78  34 90        mov.w 0x8c093ae4,r0
8c093a7a  7e 06        mov.l @(r0,r7),r6
8c093a7c  60 62        mov.b @r6,r2
8c093a7e  2c 62        extu.b r2,r2
8c093a80  28 22        tst r2,r2
8c093a82  0e 89        bt 0x8c093aa2
8c093a84  2c 90        mov.w 0x8c093ae0,r0
8c093a86  07 e1        mov #0x7,r1
8c093a88  1b d5        mov.l 0x8c093af8,r5
8c093a8a  7e 02        mov.l @(r0,r7),r2
8c093a8c  32 90        mov.w 0x8c093af4,r0
8c093a8e  26 0f        mov.l r2,@(r0,r15)
8c093a90  0b 45        jsr @r5
8c093a92  e3 62        _mov r14,r2
8c093a94  03 62        mov r0,r2
8c093a96  2d 90        mov.w 0x8c093af4,r0
8c093a98  fe 06        mov.l @(r0,r15),r6
8c093a9a  44 e0        mov #0x44,r0
8c093a9c  26 06        mov.l r2,@(r0,r6)
8c093a9e  a6 af        bra 0x8c0939ee
8c093aa0  09 00        _nop
8c093aa2  16 d2        mov.l 0x8c093afc,r2
8c093aa4  0b 42        jsr @r2
8c093aa6  e1 54        _mov.l @(0x4,r14),r4
8c093aa8  03 62        mov r0,r2
8c093aaa  24 90        mov.w 0x8c093af6,r0
8c093aac  26 0f        mov.l r2,@(r0,r15)
8c093aae  1d 90        mov.w 0x8c093aec,r0
8c093ab0  fe 04        mov.l @(r0,r15),r4
8c093ab2  20 90        mov.w 0x8c093af6,r0
8c093ab4  4a 52        mov.l @(0x28,r4),r2
8c093ab6  60 72        add #0x60,r2
8c093ab8  22 66        mov.l @r2,r6
8c093aba  22 55        mov.l @(0x8,r2),r5
8c093abc  13 d2        mov.l 0x8c093b0c,r2
8c093abe  6c 34        add r6,r4
8c093ac0  22 2f        mov.l r2,@r15
8c093ac2  fe 02        mov.l @(r0,r15),r2
8c093ac4  0b 45        jsr @r5
8c093ac6  21 1f        _mov.l r2,@(0x4,r15)
8c093ac8  10 90        mov.w 0x8c093aec,r0
8c093aca  fe 07        mov.l @(r0,r15),r7
8c093acc  08 90        mov.w 0x8c093ae0,r0
8c093ace  7e 02        mov.l @(r0,r7),r2
8c093ad0  11 90        mov.w 0x8c093af6,r0
8c093ad2  fe 06        mov.l @(r0,r15),r6
8c093ad4  0b 90        mov.w 0x8c093aee,r0
8c093ad6  66 02        mov.l r6,@(r0,r2)
8c093ad8  d4 af        bra 0x8c093a84
8c093ada  09 00        _nop
8c093adc  10 01        undefined2 0110h
8c093ade  0c 01        undefined2 010Ch
8c093ae0  d4 00        undefined2 00D4h
8c093ae2  94 00        undefined2 0094h
8c093ae4  d8 00        undefined2 00D8h
8c093ae6  1c 01        undefined2 011Ch
8c093ae8  48 01        undefined2 0148h
8c093aea  18 01        undefined2 0118h
8c093aec  14 01        undefined2 0114h
8c093aee  90 00        undefined2 0090h
8c093af0  20 01        undefined2 0120h
8c093af2  68 24        undefined2 2468h
8c093af4  28 01        undefined2 0128h
8c093af6  24 01        undefined2 0124h
8c093af8  e4 e7 09 8c  addr 8c09e7e4
8c093afc  e4 ec 1e 8c  addr 8c1eece4
8c093b00  5c 61 18 8c  addr 8c18615c
8c093b04  92 9e 09 8c  addr 8c099e92
8c093b08  56 86 09 8c  addr 8c098656
8c093b0c  38 61 18 8c  addr 8c186138
8c093b10  44 90        mov.w 0x8c093b9c,r0
8c093b12  fe 07        mov.l @(r0,r15),r7
8c093b14  43 90        mov.w 0x8c093b9e,r0
8c093b16  7e 06        mov.l @(r0,r7),r6
8c093b18  60 62        mov.b @r6,r2
8c093b1a  2c 62        extu.b r2,r2
8c093b1c  28 22        tst r2,r2
8c093b1e  04 8b        bf 0x8c093b2a
8c093b20  3e 90        mov.w 0x8c093ba0,r0
8c093b22  ff e6        mov #-0x1,r6
8c093b24  7e 02        mov.l @(r0,r7),r2
8c093b26  3c 90        mov.w 0x8c093ba2,r0
8c093b28  66 02        mov.l r6,@(r0,r2)
8c093b2a  39 90        mov.w 0x8c093ba0,r0
8c093b2c  07 e1        mov #0x7,r1
8c093b2e  1f d5        mov.l 0x8c093bac,r5
8c093b30  7e 02        mov.l @(r0,r7),r2
8c093b32  37 90        mov.w 0x8c093ba4,r0
8c093b34  26 0f        mov.l r2,@(r0,r15)
8c093b36  0b 45        jsr @r5
8c093b38  e3 62        _mov r14,r2
8c093b3a  03 62        mov r0,r2
8c093b3c  32 90        mov.w 0x8c093ba4,r0
8c093b3e  fe 06        mov.l @(r0,r15),r6
8c093b40  44 e0        mov #0x44,r0
8c093b42  26 06        mov.l r2,@(r0,r6)
8c093b44  2a 90        mov.w 0x8c093b9c,r0
8c093b46  fe 07        mov.l @(r0,r15),r7
8c093b48  2d 90        mov.w 0x8c093ba6,r0
8c093b4a  7e 00        mov.l @(r0,r7),r0
8c093b4c  0b 88        cmp/eq #0xb,r0
8c093b4e  01 89        bt 0x8c093b54
8c093b50  4d af        bra 0x8c0939ee
8c093b52  09 00        _nop
8c093b54  16 d3        mov.l 0x8c093bb0,r3
8c093b56  0b 43        jsr @r3
8c093b58  73 64        _mov r7,r4
8c093b5a  1f 90        mov.w 0x8c093b9c,r0
8c093b5c  15 d2        mov.l 0x8c093bb4,r2
8c093b5e  0b 42        jsr @r2
8c093b60  fe 04        _mov.l @(r0,r15),r4
8c093b62  1b 90        mov.w 0x8c093b9c,r0
8c093b64  08 e2        mov #0x8,r2
8c093b66  fe 07        mov.l @(r0,r15),r7
8c093b68  64 e0        mov #0x64,r0
8c093b6a  26 07        mov.l r2,@(r0,r7)
8c093b6c  3f af        bra 0x8c0939ee
8c093b6e  09 00        _nop
8c093b70  14 90        mov.w 0x8c093b9c,r0
8c093b72  e3 65        mov r14,r5
8c093b74  10 d3        mov.l 0x8c093bb8,r3
8c093b76  0b 43        jsr @r3
8c093b78  fe 04        _mov.l @(r0,r15),r4
8c093b7a  0f 90        mov.w 0x8c093b9c,r0
8c093b7c  07 e1        mov #0x7,r1
8c093b7e  0b d5        mov.l 0x8c093bac,r5
8c093b80  fe 07        mov.l @(r0,r15),r7
8c093b82  0d 90        mov.w 0x8c093ba0,r0
8c093b84  7e 02        mov.l @(r0,r7),r2
8c093b86  0f 90        mov.w 0x8c093ba8,r0
8c093b88  26 0f        mov.l r2,@(r0,r15)
8c093b8a  0b 45        jsr @r5
8c093b8c  e3 62        _mov r14,r2
8c093b8e  03 62        mov r0,r2
8c093b90  0a 90        mov.w 0x8c093ba8,r0
8c093b92  fe 06        mov.l @(r0,r15),r6
8c093b94  44 e0        mov #0x44,r0
8c093b96  26 06        mov.l r2,@(r0,r6)
8c093b98  29 af        bra 0x8c0939ee
8c093b9a  09 00        _nop
8c093b9c  14 01        undefined2 0114h
8c093b9e  d8 00        undefined2 00D8h
8c093ba0  d4 00        undefined2 00D4h
8c093ba2  90 00        undefined2 0090h
8c093ba4  2c 01        undefined2 012Ch
8c093ba6  e8 22        undefined2 22E8h
8c093ba8  30 01        undefined2 0130h
8c093baa  00           ?? 00h
8c093bab  00           ?? 00h
8c093bac  e4 e7 09 8c  addr 8c09e7e4
8c093bb0  90 9f 09 8c  addr 8c099f90
8c093bb4  ce 4a 0e 8c  addr 8c0e4ace
8c093bb8  92 9e 09 8c  addr 8c099e92
8c093bbc  76 90        mov.w 0x8c093cac,r0
8c093bbe  fe 07        mov.l @(r0,r15),r7
8c093bc0  75 90        mov.w 0x8c093cae,r0
8c093bc2  7e 02        mov.l @(r0,r7),r2
8c093bc4  11 42        cmp/pz r2
8c093bc6  11 8b        bf 0x8c093bec
8c093bc8  72 90        mov.w 0x8c093cb0,r0
8c093bca  7e 06        mov.l @(r0,r7),r6
8c093bcc  71 90        mov.w 0x8c093cb2,r0
8c093bce  7e 02        mov.l @(r0,r7),r2
8c093bd0  20 36        cmp/eq r2,r6
8c093bd2  05 8b        bf 0x8c093be0
8c093bd4  6e 90        mov.w 0x8c093cb4,r0
8c093bd6  7e 00        mov.l @(r0,r7),r0
8c093bd8  0a 88        cmp/eq #0xa,r0
8c093bda  01 89        bt 0x8c093be0
8c093bdc  07 af        bra 0x8c0939ee
8c093bde  09 00        _nop
8c093be0  66 90        mov.w 0x8c093cb0,r0
8c093be2  7e 06        mov.l @(r0,r7),r6
8c093be4  65 90        mov.w 0x8c093cb2,r0
8c093be6  7e 02        mov.l @(r0,r7),r2
8c093be8  20 36        cmp/eq r2,r6
8c093bea  05 89        bt 0x8c093bf8
8c093bec  62 90        mov.w 0x8c093cb4,r0
8c093bee  7e 00        mov.l @(r0,r7),r0
8c093bf0  08 88        cmp/eq #0x8,r0
8c093bf2  01 89        bt 0x8c093bf8
8c093bf4  fb ae        bra 0x8c0939ee
8c093bf6  09 00        _nop
8c093bf8  5d 90        mov.w 0x8c093cb6,r0
8c093bfa  32 d2        mov.l 0x8c093cc4,r2
8c093bfc  0b 42        jsr @r2
8c093bfe  7e 04        _mov.l @(r0,r7),r4
8c093c00  54 90        mov.w 0x8c093cac,r0
