; range: 8c079240 - 8c079520

8c079240  20           ?? 20h     
8c079241  39           ?? 39h    9
8c079242  4d           ?? 4Dh    M
8c079243  89           ?? 89h
8c079244  10           ?? 10h
8c079245  4c           ?? 4Ch    L
8c079246  c2           ?? C2h
8c079247  8f           ?? 8Fh
8c079248  01           ?? 01h
8c079249  7b           ?? 7Bh    {
8c07924a  28 7f        add #0x28,r15
8c07924c  26 4f        lds.l @r15+,PR
8c07924e  f6 6e        mov.l @r15+,r14
8c079250  f6 6d        mov.l @r15+,r13
8c079252  f6 6c        mov.l @r15+,r12
8c079254  1c a0        bra 0x8c079290
8c079256  f6 6b        _mov.l @r15+,r11
8c079258  6c           ?? 6Ch    l
8c079259  07           ?? 07h
8c07925a  28           ?? 28h    (
8c07925b  06           ?? 06h
8c07925c  b4           ?? B4h
8c07925d  0a           ?? 0Ah
8c07925e  88           ?? 88h
8c07925f  00           ?? 00h
8c079260  08           ?? 08h
8c079261  03           ?? 03h
8c079262  e8           ?? E8h
8c079263  04           ?? 04h
8c079264  f8           ?? F8h
8c079265  03           ?? 03h
8c079266  84           ?? 84h
8c079267  08           ?? 08h
8c079268  b4           ?? B4h
8c079269  08           ?? 08h
8c07926a  00           ?? 00h
8c07926b  00           ?? 00h
8c07926c  ac           ?? ACh
8c07926d  e7           ?? E7h
8c07926e  0d           ?? 0Dh
8c07926f  8c           ?? 8Ch
8c079270  00           ?? 00h
8c079271  00           ?? 00h
8c079272  a0           ?? A0h
8c079273  41           ?? 41h    A
8c079274  00           ?? 00h
8c079275  00           ?? 00h
8c079276  20           ?? 20h     
8c079277  40           ?? 40h    @
8c079278  4c           ?? 4Ch    L
8c079279  58           ?? 58h    X
8c07927a  28           ?? 28h    (
8c07927b  8c           ?? 8Ch
8c07927c  92 9a 07 8c  addr 8c079a92
8c079280  e4 e7 09 8c  addr 8c09e7e4
8c079284  ce 9a 07 8c  addr 8c079ace
8c079288  00           ?? 00h
8c079289  fe           ?? FEh
8c07928a  00           ?? 00h
8c07928b  00           ?? 00h
8c07928c  06           ?? 06h
8c07928d  9b           ?? 9Bh
8c07928e  07           ?? 07h
8c07928f  8c           ?? 8Ch
8c079290  f6 6a        mov.l @r15+,r10
8c079292  f6 69        mov.l @r15+,r9
8c079294  0b 00        rts
8c079296  f6 68        _mov.l @r15+,r8
8c079298  cd           ?? CDh
8c079299  62           ?? 62h    b
8c07929a  23           ?? 23h    #
8c07929b  66           ?? 66h    f
8c07929c  23           ?? 23h    #
8c07929d  64           ?? 64h    d
8c07929e  23           ?? 23h    #
8c07929f  65           ?? 65h    e
8c0792a0  08           ?? 08h
8c0792a1  42           ?? 42h    B
8c0792a2  08           ?? 08h
8c0792a3  42           ?? 42h    B
8c0792a4  58           ?? 58h    X
8c0792a5  32           ?? 32h    2
8c0792a6  00           ?? 00h
8c0792a7  42           ?? 42h    B
8c0792a8  2c           ?? 2Ch    ,
8c0792a9  3b           ?? 3Bh    ;
8c0792aa  63           ?? 63h    c
8c0792ab  62           ?? 62h    b
8c0792ac  08           ?? 08h
8c0792ad  46           ?? 46h    F
8c0792ae  b1           ?? B1h
8c0792af  85           ?? 85h
8c0792b0  08           ?? 08h
8c0792b1  46           ?? 46h    F
8c0792b2  28           ?? 28h    (
8c0792b3  36           ?? 36h    6
8c0792b4  43           ?? 43h    C
8c0792b5  62           ?? 62h    b
8c0792b6  08           ?? 08h
8c0792b7  44           ?? 44h    D
8c0792b8  03           ?? 03h
8c0792b9  65           ?? 65h    e
8c0792ba  00           ?? 00h
8c0792bb  46           ?? 46h    F
8c0792bc  08           ?? 08h
8c0792bd  44           ?? 44h    D
8c0792be  6c           ?? 6Ch    l
8c0792bf  3a           ?? 3Ah    :
8c0792c0  28           ?? 28h    (
8c0792c1  34           ?? 34h    4
8c0792c2  a1           ?? A1h
8c0792c3  85           ?? 85h
8c0792c4  00           ?? 00h
8c0792c5  44           ?? 44h    D
8c0792c6  4c           ?? 4Ch    L
8c0792c7  39           ?? 39h    9
8c0792c8  0c           ?? 0Ch
8c0792c9  35           ?? 35h    5
8c0792ca  91           ?? 91h
8c0792cb  85           ?? 85h
8c0792cc  0a           ?? 0Ah
8c0792cd  e2           ?? E2h
8c0792ce  0c           ?? 0Ch
8c0792cf  35           ?? 35h    5
8c0792d0  27           ?? 27h    '
8c0792d1  35           ?? 35h    5
8c0792d2  02           ?? 02h
8c0792d3  8d           ?? 8Dh
8c0792d4  53           ?? 53h    S
8c0792d5  1f           ?? 1Fh
8c0792d6  5f           ?? 5Fh    _
8c0792d7  af           ?? AFh
8c0792d8  09           ?? 09h
8c0792d9  00           ?? 00h
8c0792da  0a           ?? 0Ah
8c0792db  e2           ?? E2h
8c0792dc  5c           ?? 5Ch    \
8c0792dd  af           ?? AFh
8c0792de  23           ?? 23h    #
8c0792df  1f           ?? 1Fh
8c0792e0  72           ?? 72h    r
8c0792e1  90           ?? 90h
8c0792e2  f2           ?? F2h
8c0792e3  5d           ?? 5Dh    ]
8c0792e4  8e           ?? 8Eh
8c0792e5  02           ?? 02h
8c0792e6  70           ?? 70h    p
8c0792e7  95           ?? 95h
8c0792e8  3a           ?? 3Ah    :
8c0792e9  d4           ?? D4h
8c0792ea  28           ?? 28h    (
8c0792eb  1f           ?? 1Fh
8c0792ec  d3           ?? D3h
8c0792ed  62           ?? 62h    b
8c0792ee  53           ?? 53h    S
8c0792ef  66           ?? 66h    f
8c0792f0  0b           ?? 0Bh
8c0792f1  44           ?? 44h    D
8c0792f2  53           ?? 53h    S
8c0792f3  61           ?? 61h    a
8c0792f4  f8           ?? F8h
8c0792f5  55           ?? 55h    U
8c0792f6  37           ?? 37h    7
8c0792f7  d4           ?? D4h
8c0792f8  58           ?? 58h    X
8c0792f9  52           ?? 52h    R
8c0792fa  06           ?? 06h
8c0792fb  e5           ?? E5h
8c0792fc  53           ?? 53h    S
8c0792fd  61           ?? 61h    a
8c0792fe  07           ?? 07h
8c0792ff  02           ?? 02h
8c079300  d3           ?? D3h
8c079301  62           ?? 62h    b
8c079302  1a           ?? 1Ah
8c079303  06           ?? 06h
8c079304  0b           ?? 0Bh
8c079305  44           ?? 44h    D
8c079306  65           ?? 65h    e
8c079307  1f           ?? 1Fh
8c079308  03           ?? 03h
8c079309  62           ?? 62h    b
8c07930a  f8           ?? F8h
8c07930b  56           ?? 56h    V
8c07930c  5e           ?? 5Eh    ^
8c07930d  90           ?? 90h
8c07930e  6e           ?? 6Eh    n
8c07930f  05           ?? 05h
8c079310  f5           ?? F5h
8c079311  50           ?? 50h    P
8c079312  2c           ?? 2Ch    ,
8c079313  30           ?? 30h    0
8c079314  08           ?? 08h
8c079315  40           ?? 40h    @
8c079316  5e           ?? 5Eh    ^
8c079317  02           ?? 02h
8c079318  28           ?? 28h    (
8c079319  22           ?? 22h    "
8c07931a  01           ?? 01h
8c07931b  e2           ?? E2h
8c07931c  29           ?? 29h    )
8c07931d  00           ?? 00h
8c07931e  2a           ?? 2Ah    *
8c07931f  20           ?? 20h     
8c079320  08           ?? 08h
8c079321  20           ?? 20h     
8c079322  5d           ?? 5Dh    ]
8c079323  89           ?? 89h
8c079324  b3 62        mov r11,r2
8c079326  00 42        shll r2
8c079328  bc 32        add r11,r2
8c07932a  e3 65        mov r14,r5
8c07932c  00 42        shll r2
8c07932e  2c 35        add r2,r5
8c079330  f2 52        mov.l @(0x8,r15),r2
8c079332  53 84        mov.b @(0x3,r5),r0
8c079334  0f e6        mov #0xf,r6
8c079336  69 20        and r6,r0
8c079338  40 e6        mov #0x40,r6
8c07933a  6b 20        or r6,r0
8c07933c  53 80        mov.b r0,@(0x3,r5)
8c07933e  06 e6        mov #0x6,r6
8c079340  24 d5        mov.l 0x8c0793d4,r5
8c079342  0b 45        jsr @r5
8c079344  63 61        _mov r6,r1
8c079346  b3 62        mov r11,r2
8c079348  00 42        shll r2
8c07934a  bc 32        add r11,r2
8c07934c  22 d7        mov.l 0x8c0793d8,r7
8c07934e  00 42        shll r2
8c079350  e3 65        mov r14,r5
8c079352  2c 35        add r2,r5
8c079354  03 64        mov r0,r4
8c079356  06 e6        mov #0x6,r6
8c079358  53 62        mov r5,r2
8c07935a  0b 47        jsr @r7
8c07935c  63 61        _mov r6,r1
8c07935e  f2 52        mov.l @(0x8,r15),r2
8c079360  33 96        mov.w 0x8c0793ca,r6
8c079362  1c d5        mov.l 0x8c0793d4,r5
8c079364  0b 45        jsr @r5
8c079366  63 61        _mov r6,r1
8c079368  b3 62        mov r11,r2
8c07936a  00 42        shll r2
8c07936c  bc 32        add r11,r2
8c07936e  e3 65        mov r14,r5
8c079370  00 42        shll r2
8c079372  19 d7        mov.l 0x8c0793d8,r7
8c079374  2c 35        add r2,r5
8c079376  03 64        mov r0,r4
8c079378  53 62        mov r5,r2
8c07937a  26 95        mov.w 0x8c0793ca,r5
8c07937c  53 66        mov r5,r6
8c07937e  0b 47        jsr @r7
8c079380  53 61        _mov r5,r1
8c079382  f3 52        mov.l @(0xc,r15),r2
8c079384  e3 65        mov r14,r5
8c079386  22 96        mov.w 0x8c0793ce,r6
8c079388  2d 64        extu.w r2,r4
8c07938a  b3 62        mov r11,r2
8c07938c  00 42        shll r2
8c07938e  12 d7        mov.l 0x8c0793d8,r7
8c079390  bc 32        add r11,r2
8c079392  63 61        mov r6,r1
8c079394  00 42        shll r2
8c079396  43 60        mov r4,r0
8c079398  2c 35        add r2,r5
8c07939a  02 75        add #0x2,r5
8c07939c  0b 47        jsr @r7
8c07939e  53 62        _mov r5,r2
8c0793a0  b3 62        mov r11,r2
8c0793a2  00 42        shll r2
8c0793a4  bc 32        add r11,r2
8c0793a6  13 96        mov.w 0x8c0793d0,r6
8c0793a8  00 42        shll r2
8c0793aa  0b d7        mov.l 0x8c0793d8,r7
8c0793ac  2c 3e        add r2,r14
8c0793ae  63 61        mov r6,r1
8c0793b0  9d 60        extu.w r9,r0
8c0793b2  02 7e        add #0x2,r14
8c0793b4  0b 47        jsr @r7
8c0793b6  e3 62        _mov r14,r2
8c0793b8  0b 90        mov.w 0x8c0793d2,r0
8c0793ba  b3 65        mov r11,r5
8c0793bc  f4 56        mov.l @(0x10,r15),r6
8c0793be  07 d2        mov.l 0x8c0793dc,r2
8c0793c0  0b 42        jsr @r2
8c0793c2  8e 04        _mov.l @(r0,r8),r4
8c0793c4  41 af        bra 0x8c07924a
8c0793c6  09 00        _nop
8c0793c8  6c           ?? 6Ch    l
8c0793c9  07           ?? 07h
8c0793ca  05 06        undefined2 0605h
8c0793cc  a0           ?? A0h
8c0793cd  0a           ?? 0Ah
8c0793ce  04 0c        undefined2 0C04h
8c0793d0  04 08        undefined2 0804h
8c0793d2  b4 08        undefined2 08B4h
8c0793d4  e4 e7 09 8c  addr 8c09e7e4
8c0793d8  90 e7 09 8c  addr 8c09e790
8c0793dc  c0 9a 07 8c  addr 8c079ac0
8c0793e0  f2 5d        mov.l @(0x8,r15),r13
8c0793e2  06 e6        mov #0x6,r6
8c0793e4  43 d5        mov.l 0x8c0794f4,r5
8c0793e6  63 61        mov r6,r1
8c0793e8  0b 45        jsr @r5
8c0793ea  d3 62        _mov r13,r2
8c0793ec  7b 91        mov.w 0x8c0794e6,r1
8c0793ee  d3 62        mov r13,r2
8c0793f0  40 d5        mov.l 0x8c0794f4,r5
8c0793f2  09 1f        mov.l r0,@(0x24,r15)
8c0793f4  0b 45        jsr @r5
8c0793f6  13 66        _mov r1,r6
8c0793f8  00 e2        mov #0x0,r2
8c0793fa  f8 54        mov.l @(0x20,r15),r4
8c0793fc  22 2f        mov.l r2,@r15
8c0793fe  ad 67        extu.w r10,r7
8c079400  3d d2        mov.l 0x8c0794f8,r2
8c079402  03 66        mov r0,r6
8c079404  0b 42        jsr @r2
8c079406  f9 55        _mov.l @(0x24,r15),r5
8c079408  3c d7        mov.l 0x8c0794fc,r7
8c07940a  6d 92        mov.w 0x8c0794e8,r2
8c07940c  2c 37        add r2,r7
8c07940e  70 62        mov.b @r7,r2
8c079410  2c 62        extu.b r2,r2
8c079412  28 22        tst r2,r2
8c079414  12 8d        bt/s 0x8c07943c
8c079416  76 1f        _mov.l r7,@(0x18,r15)
8c079418  39 d6        mov.l 0x8c079500,r6
8c07941a  62 64        mov.l @r6,r4
8c07941c  47 1f        mov.l r4,@(0x1c,r15)
8c07941e  71 84        mov.b @(0x1,r7),r0
8c079420  38 d2        mov.l 0x8c079504,r2
8c079422  0b 42        jsr @r2
8c079424  0c 65        _extu.b r0,r5
8c079426  f6 57        mov.l @(0x18,r15),r7
8c079428  37 d2        mov.l 0x8c079508,r2
8c07942a  72 84        mov.b @(0x2,r7),r0
8c07942c  f7 54        mov.l @(0x1c,r15),r4
8c07942e  0c 65        extu.b r0,r5
8c079430  73 84        mov.b @(0x3,r7),r0
8c079432  00 e7        mov #0x0,r7
8c079434  0b 42        jsr @r2
8c079436  0c 66        _extu.b r0,r6
8c079438  74 af        bra 0x8c079324
8c07943a  09 00        _nop
8c07943c  33 d6        mov.l 0x8c07950c,r6
8c07943e  62 64        mov.l @r6,r4
8c079440  ed af        bra 0x8c07941e
8c079442  47 1f        _mov.l r4,@(0x1c,r15)
8c079444  0b           ?? 0Bh
8c079445  00           ?? 00h
8c079446  09           ?? 09h
8c079447  00           ?? 00h
8c079448  31           ?? 31h    1
8c079449  d6           ?? D6h
8c07944a  08           ?? 08h
8c07944b  45           ?? 45h    E
8c07944c  53           ?? 53h    S
8c07944d  60           ?? 60h    `
8c07944e  0b           ?? 0Bh
8c07944f  00           ?? 00h
8c079450  6e           ?? 6Eh    n
8c079451  00           ?? 00h
8c079452  4a 90        mov.w 0x8c0794ea,r0
8c079454  0b 00        rts
8c079456  56 04        _mov.l r5,@(r0,r4)
8c079458  22 4f        sts.l PR,@-r15
8c07945a  47 93        mov.w 0x8c0794ec,r3
8c07945c  3c 3f        add r3,r15
8c07945e  2d d7        mov.l 0x8c079514,r7
8c079460  72 62        mov.l @r7,r2
8c079462  28 22        tst r2,r2
8c079464  13 89        bt 0x8c07948e
8c079466  f3 62        mov r15,r2
8c079468  41 90        mov.w 0x8c0794ee,r0
8c07946a  0c 32        add r0,r2
8c07946c  04 72        add #0x4,r2
8c07946e  03 e5        mov #0x3,r5
8c079470  23 66        mov r2,r6
8c079472  59 22        and r5,r2
8c079474  28 22        tst r2,r2
8c079476  00 89        bt 0x8c07947a
8c079478  04 76        add #0x4,r6
8c07947a  27 d2        mov.l 0x8c079518,r2
8c07947c  f3 64        mov r15,r4
8c07947e  36 90        mov.w 0x8c0794ee,r0
8c079480  0b 42        jsr @r2
8c079482  fe 05        _mov.l @(r0,r15),r5
8c079484  23 d7        mov.l 0x8c079514,r7
8c079486  f3 65        mov r15,r5
8c079488  24 d2        mov.l 0x8c07951c,r2
8c07948a  0b 42        jsr @r2
8c07948c  72 64        _mov.l @r7,r4
8c07948e  2f 93        mov.w 0x8c0794f0,r3
8c079490  3c 3f        add r3,r15
8c079492  26 4f        lds.l @r15+,PR
8c079494  0b 00        rts
8c079496  09 00        _nop
8c079498  d6           ?? D6h
8c079499  2f           ?? 2Fh    /
8c07949a  e6           ?? E6h
8c07949b  2f           ?? 2Fh    /
8c07949c  22           ?? 22h    "
8c07949d  4f           ?? 4Fh    O
8c07949e  25           ?? 25h    %
8c07949f  93           ?? 93h
8c0794a0  3c           ?? 3Ch    <
8c0794a1  3f           ?? 3Fh    ?
8c0794a2  63           ?? 63h    c
8c0794a3  6d           ?? 6Dh    m
8c0794a4  1b           ?? 1Bh
8c0794a5  d6           ?? D6h
8c0794a6  62           ?? 62h    b
8c0794a7  62           ?? 62h    b
8c0794a8  28           ?? 28h    (
8c0794a9  22           ?? 22h    "
8c0794aa  16           ?? 16h
8c0794ab  8d           ?? 8Dh
8c0794ac  53           ?? 53h    S
8c0794ad  6e           ?? 6Eh    n
8c0794ae  f3           ?? F3h
8c0794af  62           ?? 62h    b
8c0794b0  1f           ?? 1Fh
8c0794b1  90           ?? 90h
8c0794b2  0c           ?? 0Ch
8c0794b3  32           ?? 32h    2
8c0794b4  04           ?? 04h
8c0794b5  72           ?? 72h    r
8c0794b6  03           ?? 03h
8c0794b7  e5           ?? E5h
8c0794b8  23           ?? 23h    #
8c0794b9  66           ?? 66h    f
8c0794ba  59           ?? 59h    Y
8c0794bb  22           ?? 22h    "
8c0794bc  28           ?? 28h    (
8c0794bd  22           ?? 22h    "
8c0794be  00           ?? 00h
8c0794bf  89           ?? 89h
8c0794c0  04           ?? 04h
8c0794c1  76           ?? 76h    v
8c0794c2  15           ?? 15h
8c0794c3  d2           ?? D2h
8c0794c4  f3           ?? F3h
8c0794c5  64           ?? 64h    d
8c0794c6  14           ?? 14h
8c0794c7  90           ?? 90h
8c0794c8  0b           ?? 0Bh
8c0794c9  42           ?? 42h    B
8c0794ca  fe           ?? FEh
8c0794cb  05           ?? 05h
8c0794cc  11           ?? 11h
8c0794cd  d3           ?? D3h
8c0794ce  f3           ?? F3h
8c0794cf  67           ?? 67h    g
8c0794d0  13           ?? 13h
8c0794d1  d2           ?? D2h
8c0794d2  e3           ?? E3h
8c0794d3  65           ?? 65h    e
8c0794d4  32           ?? 32h    2
8c0794d5  64           ?? 64h    d
8c0794d6  0b           ?? 0Bh
8c0794d7  42           ?? 42h    B
8c0794d8  d3           ?? D3h
8c0794d9  66           ?? 66h    f
8c0794da  09           ?? 09h
8c0794db  93           ?? 93h
8c0794dc  3c           ?? 3Ch    <
8c0794dd  3f           ?? 3Fh    ?
8c0794de  26           ?? 26h    &
8c0794df  4f           ?? 4Fh    O
8c0794e0  f6           ?? F6h
8c0794e1  6e           ?? 6Eh    n
8c0794e2  0b           ?? 0Bh
8c0794e3  00           ?? 00h
8c0794e4  f6           ?? F6h
8c0794e5  6d           ?? 6Dh    m
8c0794e6  05 06        undefined2 0605h
8c0794e8  2c 01        undefined2 012Ch
8c0794ea  b4 08        undefined2 08B4h
8c0794ec  00 ff        undefined2 FF00h
8c0794ee  04 01        undefined2 0104h
8c0794f0  00 01        undefined2 0100h
8c0794f2  0c           ?? 0Ch
8c0794f3  01           ?? 01h
8c0794f4  e4 e7 09 8c  addr 8c09e7e4
8c0794f8  2c 48 08 8c  addr 8c08482c
8c0794fc  08 23 18 8c  addr 8c182308
8c079500  00 d0 27 8c  undefined4 8C27D000h
8c079504  0e 5b 05 8c  addr 8c055b0e
8c079508  d8 5c 05 8c  addr 8c055cd8
8c07950c  04 d0 27 8c  undefined4 8C27D004h
8c079510  b0           ?? B0h
8c079511  c3           ?? C3h
8c079512  1b           ?? 1Bh
8c079513  8c           ?? 8Ch
8c079514  60 c8 1b 8c  addr 8c1bc860
8c079518  60 fa 09 8c  addr 8c09fa60
8c07951c  5c 37 09 8c  addr 8c09375c
8c079520  e0           ?? E0h
