; range: 8c0740d0 - 8c0743f0

8c0740d0  e7 6e        not r14,r14
8c0740d2  01 7e        add #0x1,r14
8c0740d4  99 2e        and r9,r14
8c0740d6  e7 6e        not r14,r14
8c0740d8  01 7e        add #0x1,r14
8c0740da  11 4d        cmp/pz r13
8c0740dc  16 8d        bt/s 0x8c07410c
8c0740de  d3 67        _mov r13,r7
8c0740e0  14 a0        bra 0x8c07410c
8c0740e2  07 77        _add #0x7,r7
8c0740e4  b4 08        undefined2 08B4h
8c0740e6  28 06        undefined2 0628h
8c0740e8  ff 01        undefined2 01FFh
8c0740ea  09 07        undefined2 0709h
8c0740ec  c0 08        undefined2 08C0h
8c0740ee  bc 08        undefined2 08BCh
8c0740f0  9c 08        undefined2 089Ch
8c0740f2  00           ?? 00h
8c0740f3  00           ?? 00h
8c0740f4  08 51 07 8c  addr 8c075108
8c0740f8  e4 e7 09 8c  addr 8c09e7e4
8c0740fc  00 fe 00 00  undefined4 0000FE00h
8c074100  90 e7 09 8c  addr 8c09e790
8c074104  4c 58 28 8c  undefined4 8C28584Ch
8c074108  00 00 b4 42  undefined4 42B40000h
8c07410c  21 47        shar r7
8c07410e  21 47        shar r7
8c074110  21 47        shar r7
8c074112  73 60        mov r7,r0
8c074114  cc 06        mov.b @(r0,r12),r6
8c074116  eb 62        neg r14,r2
8c074118  6c 60        extu.b r6,r0
8c07411a  2c 40        shad r2,r0
8c07411c  01 c8        tst #0x1,r0
8c07411e  07 8f        bf/s 0x8c074130
8c074120  7c 1f        _mov.l r7,@(0x30,r15)
8c074122  73 60        mov r7,r0
8c074124  bc 02        mov.b @(r0,r11),r2
8c074126  eb 66        neg r14,r6
8c074128  2c 60        extu.b r2,r0
8c07412a  6c 40        shad r6,r0
8c07412c  01 c8        tst #0x1,r0
8c07412e  04 8b        bf 0x8c07413a
8c074130  01 7d        add #0x1,r13
8c074132  53 3d        cmp/ge r5,r13
8c074134  c7 8b        bf 0x8c0740c6
8c074136  0e af        bra 0x8c073f56
8c074138  09 00        _nop
8c07413a  11 90        mov.w 0x8c074160,r0
8c07413c  d3 65        mov r13,r5
8c07413e  09 d2        mov.l 0x8c074164,r2
8c074140  0b 42        jsr @r2
8c074142  ae 04        _mov.l @(r0,r10),r4
8c074144  fc 57        mov.l @(0x30,r15),r7
8c074146  b3 65        mov r11,r5
8c074148  01 e2        mov #0x1,r2
8c07414a  0a 90        mov.w 0x8c074162,r0
8c07414c  7c 35        add r7,r5
8c07414e  50 66        mov.b @r5,r6
8c074150  ec 42        shad r14,r2
8c074152  27 62        not r2,r2
8c074154  6c 66        extu.b r6,r6
8c074156  29 26        and r2,r6
8c074158  60 25        mov.b r6,@r5
8c07415a  ae 05        mov.l @(r0,r10),r5
8c07415c  e8 af        bra 0x8c074130
8c07415e  09 00        _nop
8c074160  6c 07        undefined2 076Ch
8c074162  9c 08        undefined2 089Ch
8c074164  4a 10 09 8c  addr 8c09104a
8c074168  d3 66        mov r13,r6
8c07416a  00 46        shll r6
8c07416c  dc 36        add r13,r6
8c07416e  62 d4        mov.l 0x8c0742f8,r4
8c074170  00 46        shll r6
8c074172  9c 36        add r9,r6
8c074174  02 76        add #0x2,r6
8c074176  04 e5        mov #0x4,r5
8c074178  63 62        mov r6,r2
8c07417a  0b 44        jsr @r4
8c07417c  53 61        _mov r5,r1
8c07417e  05 88        cmp/eq #0x5,r0
8c074180  01 89        bt 0x8c074186
8c074182  41 af        bra 0x8c074008
8c074184  09 00        _nop
8c074186  d3 66        mov r13,r6
8c074188  00 46        shll r6
8c07418a  dc 36        add r13,r6
8c07418c  f6 55        mov.l @(0x18,r15),r5
8c07418e  00 46        shll r6
8c074190  59 d4        mov.l 0x8c0742f8,r4
8c074192  5c 36        add r5,r6
8c074194  02 76        add #0x2,r6
8c074196  04 e5        mov #0x4,r5
8c074198  63 62        mov r6,r2
8c07419a  0b 44        jsr @r4
8c07419c  53 61        _mov r5,r1
8c07419e  04 88        cmp/eq #0x4,r0
8c0741a0  0f 89        bt 0x8c0741c2
8c0741a2  d3 66        mov r13,r6
8c0741a4  00 46        shll r6
8c0741a6  dc 36        add r13,r6
8c0741a8  f6 55        mov.l @(0x18,r15),r5
8c0741aa  00 46        shll r6
8c0741ac  52 d4        mov.l 0x8c0742f8,r4
8c0741ae  5c 36        add r5,r6
8c0741b0  02 76        add #0x2,r6
8c0741b2  04 e5        mov #0x4,r5
8c0741b4  63 62        mov r6,r2
8c0741b6  0b 44        jsr @r4
8c0741b8  53 61        _mov r5,r1
8c0741ba  08 20        tst r0,r0
8c0741bc  01 89        bt 0x8c0741c2
8c0741be  23 af        bra 0x8c074008
8c0741c0  09 00        _nop
8c0741c2  91 90        mov.w 0x8c0742e8,r0
8c0741c4  d3 65        mov r13,r5
8c0741c6  4d d2        mov.l 0x8c0742fc,r2
8c0741c8  0b 42        jsr @r2
8c0741ca  ae 04        _mov.l @(r0,r10),r4
8c0741cc  d3 66        mov r13,r6
8c0741ce  00 46        shll r6
8c0741d0  dc 36        add r13,r6
8c0741d2  03 6e        mov r0,r14
8c0741d4  00 46        shll r6
8c0741d6  f4 52        mov.l @(0x10,r15),r2
8c0741d8  9c 36        add r9,r6
8c0741da  62 85        mov.w @(0x4,r6),r0
8c0741dc  85 96        mov.w 0x8c0742ea,r6
8c0741de  22 65        mov.l @r2,r5
8c0741e0  03 62        mov r0,r2
8c0741e2  83 90        mov.w 0x8c0742ec,r0
8c0741e4  69 22        and r6,r2
8c0741e6  2c 35        add r2,r5
8c0741e8  45 d2        mov.l 0x8c074300,r2
8c0741ea  ae 04        mov.l @(r0,r10),r4
8c0741ec  0b 42        jsr @r2
8c0741ee  53 68        _mov r5,r8
8c0741f0  d3 66        mov r13,r6
8c0741f2  00 46        shll r6
8c0741f4  dc 36        add r13,r6
8c0741f6  f6 55        mov.l @(0x18,r15),r5
8c0741f8  00 46        shll r6
8c0741fa  3f d4        mov.l 0x8c0742f8,r4
8c0741fc  5c 36        add r5,r6
8c0741fe  03 6b        mov r0,r11
8c074200  02 76        add #0x2,r6
8c074202  04 e5        mov #0x4,r5
8c074204  63 62        mov r6,r2
8c074206  0b 44        jsr @r4
8c074208  53 61        _mov r5,r1
8c07420a  04 88        cmp/eq #0x4,r0
8c07420c  01 89        bt 0x8c074212
8c07420e  ba a0        bra 0x8c074386
8c074210  09 00        _nop
8c074212  80 3e        cmp/eq r8,r14
8c074214  01 89        bt 0x8c07421a
8c074216  0d af        bra 0x8c074034
8c074218  09 00        _nop
8c07421a  b2 38        cmp/hs r11,r8
8c07421c  01 89        bt 0x8c074222
8c07421e  b8 a0        bra 0x8c074392
8c074220  09 00        _nop
8c074222  64 90        mov.w 0x8c0742ee,r0
8c074224  83 62        mov r8,r2
8c074226  b8 32        sub r11,r2
8c074228  ae 04        mov.l @(r0,r10),r4
8c07422a  18 e0        mov #0x18,r0
8c07422c  5a 42        lds r2,FPUL
8c07422e  11 42        cmp/pz r2
8c074230  47 1f        mov.l r4,@(0x1c,r15)
8c074232  46 f4        fmov.s @(r0,r4),fr4
8c074234  03 8d        bt/s 0x8c07423e
8c074236  2d f9        _float FPUL,fr9
8c074238  32 c7        mova 0x8c074304,r0
8c07423a  08 f6        fmov.s @r0,fr6
8c07423c  60 f9        fadd fr6,fr9
8c07423e  32 d3        mov.l 0x8c074308,r3
8c074240  20 e0        mov #0x20,r0
8c074242  f3 52        mov.l @(0xc,r15),r2
8c074244  38 f8        fmov.s @r3,fr8
8c074246  15 42        cmp/pl r2
8c074248  83 f9        fdiv fr8,fr9
8c07424a  90 f4        fadd fr9,fr4
8c07424c  47 ff        fmov fr4,@(r0,r15)
8c07424e  4f 90        mov.w 0x8c0742f0,r0
8c074250  4e 06        mov.l @(r0,r4),r6
8c074252  0a 8f        bf/s 0x8c07426a
8c074254  00 ee        _mov #0x0,r14
8c074256  f3 55        mov.l @(0xc,r15),r5
8c074258  61 62        mov.w @r6,r2
8c07425a  2d 60        extu.w r2,r0
8c07425c  01 c8        tst #0x1,r0
8c07425e  04 89        bt 0x8c07426a
8c074260  01 7e        add #0x1,r14
8c074262  46 92        mov.w 0x8c0742f2,r2
8c074264  53 3e        cmp/ge r5,r14
8c074266  f7 8f        bf/s 0x8c074258
8c074268  2c 36        _add r2,r6
8c07426a  f3 52        mov.l @(0xc,r15),r2
8c07426c  23 3e        cmp/ge r2,r14
8c07426e  01 8b        bf 0x8c074274
8c074270  ca ae        bra 0x8c074008
8c074272  09 00        _nop
8c074274  d3 66        mov r13,r6
8c074276  00 46        shll r6
8c074278  dc 36        add r13,r6
8c07427a  3b 95        mov.w 0x8c0742f4,r5
8c07427c  00 46        shll r6
8c07427e  1e d4        mov.l 0x8c0742f8,r4
8c074280  9c 36        add r9,r6
8c074282  53 61        mov r5,r1
8c074284  02 76        add #0x2,r6
8c074286  0b 44        jsr @r4
8c074288  63 62        _mov r6,r2
8c07428a  d3 65        mov r13,r5
8c07428c  00 45        shll r5
8c07428e  dc 35        add r13,r5
8c074290  19 d4        mov.l 0x8c0742f8,r4
8c074292  00 45        shll r5
8c074294  0e 1f        mov.l r0,@(0x38,r15)
8c074296  9c 35        add r9,r5
8c074298  06 e6        mov #0x6,r6
8c07429a  53 62        mov r5,r2
8c07429c  0b 44        jsr @r4
8c07429e  63 61        _mov r6,r1
8c0742a0  d3 65        mov r13,r5
8c0742a2  00 45        shll r5
8c0742a4  dc 35        add r13,r5
8c0742a6  26 96        mov.w 0x8c0742f6,r6
8c0742a8  00 45        shll r5
8c0742aa  13 d4        mov.l 0x8c0742f8,r4
8c0742ac  9c 35        add r9,r5
8c0742ae  09 1f        mov.l r0,@(0x24,r15)
8c0742b0  53 62        mov r5,r2
8c0742b2  0b 44        jsr @r4
8c0742b4  63 61        _mov r6,r1
8c0742b6  d3 66        mov r13,r6
8c0742b8  00 46        shll r6
8c0742ba  dc 36        add r13,r6
8c0742bc  03 65        mov r0,r5
8c0742be  00 46        shll r6
8c0742c0  f7 54        mov.l @(0x1c,r15),r4
8c0742c2  9c 36        add r9,r6
8c0742c4  f9 57        mov.l @(0x24,r15),r7
8c0742c6  62 84        mov.b @(0x2,r6),r0
8c0742c8  0f e6        mov #0xf,r6
8c0742ca  52 2f        mov.l r5,@r15
8c0742cc  e3 65        mov r14,r5
8c0742ce  03 62        mov r0,r2
8c0742d0  69 22        and r6,r2
8c0742d2  21 1f        mov.l r2,@(0x4,r15)
8c0742d4  00 e2        mov #0x0,r2
8c0742d6  20 e0        mov #0x20,r0
8c0742d8  22 1f        mov.l r2,@(0x8,r15)
8c0742da  0c d2        mov.l 0x8c07430c,r2
8c0742dc  f6 f4        fmov.s @(r0,r15),fr4
8c0742de  0b 42        jsr @r2
8c0742e0  fe 56        _mov.l @(0x38,r15),r6
8c0742e2  01 90        mov.w 0x8c0742e8,r0
8c0742e4  14 a0        bra 0x8c074310
8c0742e6  09 00        _nop
8c0742e8  b4 08        undefined2 08B4h
8c0742ea  ff 01        undefined2 01FFh
8c0742ec  84 08        undefined2 0884h
8c0742ee  6c 07        undefined2 076Ch
8c0742f0  b4 0a        undefined2 0AB4h
8c0742f2  88 00        undefined2 0088h
8c0742f4  04 08        undefined2 0804h
8c0742f6  05 06        undefined2 0605h
8c0742f8  e4 e7 09 8c  addr 8c09e7e4
8c0742fc  ce 9a 07 8c  addr 8c079ace
8c074300  ac e7 0d 8c  addr 8c0de7ac
8c074304  00 00 80 4f  undefined4 4F800000h
8c074308  4c 58 28 8c  undefined4 8C28584Ch
8c07430c  d4 44 08 8c  addr 8c0844d4
8c074310  d3 65        mov r13,r5
8c074312  2f d2        mov.l 0x8c0743d0,r2
8c074314  e3 66        mov r14,r6
8c074316  0b 42        jsr @r2
8c074318  ae 04        _mov.l @(r0,r10),r4
8c07431a  57 90        mov.w 0x8c0743cc,r0
8c07431c  d3 65        mov r13,r5
8c07431e  2d d2        mov.l 0x8c0743d4,r2
8c074320  83 66        mov r8,r6
8c074322  0b 42        jsr @r2
8c074324  ae 04        _mov.l @(r0,r10),r4
8c074326  d3 66        mov r13,r6
8c074328  00 46        shll r6
8c07432a  dc 36        add r13,r6
8c07432c  f6 54        mov.l @(0x18,r15),r4
8c07432e  00 46        shll r6
8c074330  29 d7        mov.l 0x8c0743d8,r7
8c074332  9c 36        add r9,r6
8c074334  4b 92        mov.w 0x8c0743ce,r2
8c074336  63 84        mov.b @(0x3,r6),r0
8c074338  0f e5        mov #0xf,r5
8c07433a  2c 37        add r2,r7
8c07433c  59 20        and r5,r0
8c07433e  7a 1f        mov.l r7,@(0x28,r15)
8c074340  10 e5        mov #0x10,r5
8c074342  5b 20        or r5,r0
8c074344  63 80        mov.b r0,@(0x3,r6)
8c074346  d3 66        mov r13,r6
8c074348  00 46        shll r6
8c07434a  dc 36        add r13,r6
8c07434c  00 46        shll r6
8c07434e  4c 36        add r4,r6
8c074350  63 84        mov.b @(0x3,r6),r0
8c074352  0f e4        mov #0xf,r4
8c074354  49 20        and r4,r0
8c074356  5b 20        or r5,r0
8c074358  63 80        mov.b r0,@(0x3,r6)
8c07435a  70 62        mov.b @r7,r2
8c07435c  2c 62        extu.b r2,r2
8c07435e  28 22        tst r2,r2
8c074360  2c 89        bt 0x8c0743bc
8c074362  1e d3        mov.l 0x8c0743dc,r3
8c074364  32 64        mov.l @r3,r4
8c074366  4b 1f        mov.l r4,@(0x2c,r15)
8c074368  71 84        mov.b @(0x1,r7),r0
8c07436a  1d d2        mov.l 0x8c0743e0,r2
8c07436c  0b 42        jsr @r2
8c07436e  0c 65        _extu.b r0,r5
8c074370  fa 57        mov.l @(0x28,r15),r7
8c074372  1c d2        mov.l 0x8c0743e4,r2
8c074374  72 84        mov.b @(0x2,r7),r0
8c074376  fb 54        mov.l @(0x2c,r15),r4
8c074378  0c 65        extu.b r0,r5
8c07437a  73 84        mov.b @(0x3,r7),r0
8c07437c  00 e7        mov #0x0,r7
8c07437e  0b 42        jsr @r2
8c074380  0c 66        _extu.b r0,r6
8c074382  41 ae        bra 0x8c074008
8c074384  09 00        _nop
8c074386  e6 38        cmp/hi r14,r8
8c074388  01 89        bt 0x8c07438e
8c07438a  53 ae        bra 0x8c074034
8c07438c  09 00        _nop
8c07438e  44 af        bra 0x8c07421a
8c074390  09 00        _nop
8c074392  d3 66        mov r13,r6
8c074394  00 46        shll r6
8c074396  dc 36        add r13,r6
8c074398  f6 54        mov.l @(0x18,r15),r4
8c07439a  00 46        shll r6
8c07439c  6d 1f        mov.l r6,@(0x34,r15)
8c07439e  9c 36        add r9,r6
8c0743a0  63 84        mov.b @(0x3,r6),r0
8c0743a2  0f e5        mov #0xf,r5
8c0743a4  59 20        and r5,r0
8c0743a6  63 80        mov.b r0,@(0x3,r6)
8c0743a8  d3 66        mov r13,r6
8c0743aa  00 46        shll r6
8c0743ac  dc 36        add r13,r6
8c0743ae  00 46        shll r6
8c0743b0  4c 36        add r4,r6
8c0743b2  63 84        mov.b @(0x3,r6),r0
8c0743b4  59 20        and r5,r0
8c0743b6  63 80        mov.b r0,@(0x3,r6)
8c0743b8  3c ae        bra 0x8c074034
8c0743ba  09 00        _nop
8c0743bc  0a d3        mov.l 0x8c0743e8,r3
8c0743be  32 64        mov.l @r3,r4
8c0743c0  d2 af        bra 0x8c074368
8c0743c2  4b 1f        _mov.l r4,@(0x2c,r15)
8c0743c4  6a ae        bra 0x8c07409c
8c0743c6  99 25        _and r9,r5
8c0743c8  87 ae        bra 0x8c0740da
8c0743ca  99 2e        _and r9,r14
8c0743cc  b4 08        undefined2 08B4h
8c0743ce  28 01        undefined2 0128h
8c0743d0  dc 9a 07 8c  addr 8c079adc
8c0743d4  c0 9a 07 8c  addr 8c079ac0
8c0743d8  08 23 18 8c  addr 8c182308
8c0743dc  00 d0 27 8c  undefined4 8C27D000h
8c0743e0  0e 5b 05 8c  addr 8c055b0e
8c0743e4  d8 5c 05 8c  addr 8c055cd8
8c0743e8  04 d0 27 8c  undefined4 8C27D004h
8c0743ec  86 2f        mov.l r8,@-r15
8c0743ee  96 2f        mov.l r9,@-r15
8c0743f0  a6 2f        mov.l r10,@-r15
