; range: 8c064600 - 8c064820

8c064600  de 04        _mov.l @(r0,r13),r4
8c064602  b0 30        cmp/eq r11,r0
8c064604  02 8b        bf 0x8c06460c
8c064606  c8 2c        tst r12,r12
8c064608  2d 89        bt 0x8c064666
8c06460a  ff 7c        add #-0x1,r12
8c06460c  63 90        mov.w 0x8c0646d6,r0
8c06460e  01 7e        add #0x1,r14
8c064610  0b 48        jsr @r8
8c064612  de 04        _mov.l @(r0,r13),r4
8c064614  03 3e        cmp/ge r0,r14
8c064616  e8 8b        bf 0x8c0645ea
8c064618  00 e0        mov #0x0,r0
8c06461a  26 4f        lds.l @r15+,PR
8c06461c  f6 6e        mov.l @r15+,r14
8c06461e  f6 6d        mov.l @r15+,r13
8c064620  f6 6c        mov.l @r15+,r12
8c064622  f6 6b        mov.l @r15+,r11
8c064624  f6 6a        mov.l @r15+,r10
8c064626  f6 69        mov.l @r15+,r9
8c064628  0b 00        rts
8c06462a  f6 68        _mov.l @r15+,r8
8c06462c  53 90        mov.w 0x8c0646d6,r0
8c06462e  2b dc        mov.l 0x8c0646dc,r12
8c064630  0b 4c        jsr @r12
8c064632  de 04        _mov.l @(r0,r13),r4
8c064634  15 40        cmp/pl r0
8c064636  ef 8b        bf 0x8c064618
8c064638  29 db        mov.l 0x8c0646e0,r11
8c06463a  4c 90        mov.w 0x8c0646d6,r0
8c06463c  02 e6        mov #0x2,r6
8c06463e  e3 65        mov r14,r5
8c064640  0b 4b        jsr @r11
8c064642  de 04        _mov.l @(r0,r13),r4
8c064644  a0 30        cmp/eq r10,r0
8c064646  07 89        bt 0x8c064658
8c064648  45 90        mov.w 0x8c0646d6,r0
8c06464a  01 7e        add #0x1,r14
8c06464c  0b 4c        jsr @r12
8c06464e  de 04        _mov.l @(r0,r13),r4
8c064650  03 3e        cmp/ge r0,r14
8c064652  f2 8b        bf 0x8c06463a
8c064654  e0 af        bra 0x8c064618
8c064656  09 00        _nop
8c064658  3e 90        mov.w 0x8c0646d8,r0
8c06465a  08 4e        shll2 r14
8c06465c  de 06        mov.l @(r0,r13),r6
8c06465e  e3 60        mov r14,r0
8c064660  6e 00        mov.l @(r0,r6),r0
8c064662  da af        bra 0x8c06461a
8c064664  09 00        _nop
8c064666  37 90        mov.w 0x8c0646d8,r0
8c064668  08 4e        shll2 r14
8c06466a  de 05        mov.l @(r0,r13),r5
8c06466c  e3 60        mov r14,r0
8c06466e  5e 00        mov.l @(r0,r5),r0
8c064670  d3 af        bra 0x8c06461a
8c064672  09 00        _nop
8c064674  96 2f        mov.l r9,@-r15
8c064676  a6 2f        mov.l r10,@-r15
8c064678  b6 2f        mov.l r11,@-r15
8c06467a  c6 2f        mov.l r12,@-r15
8c06467c  d6 2f        mov.l r13,@-r15
8c06467e  e6 2f        mov.l r14,@-r15
8c064680  22 4f        sts.l PR,@-r15
8c064682  11 46        cmp/pz r6
8c064684  63 6c        mov r6,r12
8c064686  53 6b        mov r5,r11
8c064688  43 6d        mov r4,r13
8c06468a  2b 8f        bf/s 0x8c0646e4
8c06468c  00 ee        _mov #0x0,r14
8c06468e  22 90        mov.w 0x8c0646d6,r0
8c064690  12 d9        mov.l 0x8c0646dc,r9
8c064692  0b 49        jsr @r9
8c064694  de 04        _mov.l @(r0,r13),r4
8c064696  15 40        cmp/pl r0
8c064698  14 8b        bf 0x8c0646c4
8c06469a  11 da        mov.l 0x8c0646e0,r10
8c06469c  1b 90        mov.w 0x8c0646d6,r0
8c06469e  02 e6        mov #0x2,r6
8c0646a0  e3 65        mov r14,r5
8c0646a2  0b 4a        jsr @r10
8c0646a4  de 04        _mov.l @(r0,r13),r4
8c0646a6  b0 30        cmp/eq r11,r0
8c0646a8  06 8b        bf 0x8c0646b8
8c0646aa  14 90        mov.w 0x8c0646d6,r0
8c0646ac  03 e6        mov #0x3,r6
8c0646ae  e3 65        mov r14,r5
8c0646b0  0b 4a        jsr @r10
8c0646b2  de 04        _mov.l @(r0,r13),r4
8c0646b4  c0 30        cmp/eq r12,r0
8c0646b6  2b 89        bt 0x8c064710
8c0646b8  0d 90        mov.w 0x8c0646d6,r0
8c0646ba  01 7e        add #0x1,r14
8c0646bc  0b 49        jsr @r9
8c0646be  de 04        _mov.l @(r0,r13),r4
8c0646c0  03 3e        cmp/ge r0,r14
8c0646c2  eb 8b        bf 0x8c06469c
8c0646c4  00 e0        mov #0x0,r0
8c0646c6  26 4f        lds.l @r15+,PR
8c0646c8  f6 6e        mov.l @r15+,r14
8c0646ca  f6 6d        mov.l @r15+,r13
8c0646cc  f6 6c        mov.l @r15+,r12
8c0646ce  f6 6b        mov.l @r15+,r11
8c0646d0  f6 6a        mov.l @r15+,r10
8c0646d2  0b 00        rts
8c0646d4  f6 69        _mov.l @r15+,r9
8c0646d6  78 02        undefined2 0278h
8c0646d8  90 02        undefined2 0290h
8c0646da  00           ?? 00h
8c0646db  00           ?? 00h
8c0646dc  62 1b 06 8c  addr 8c061b62
8c0646e0  ac 1b 06 8c  addr 8c061bac
8c0646e4  a6 90        mov.w 0x8c064834,r0
8c0646e6  55 dc        mov.l 0x8c06483c,r12
8c0646e8  0b 4c        jsr @r12
8c0646ea  de 04        _mov.l @(r0,r13),r4
8c0646ec  15 40        cmp/pl r0
8c0646ee  e9 8b        bf 0x8c0646c4
8c0646f0  53 da        mov.l 0x8c064840,r10
8c0646f2  9f 90        mov.w 0x8c064834,r0
8c0646f4  02 e6        mov #0x2,r6
8c0646f6  e3 65        mov r14,r5
8c0646f8  0b 4a        jsr @r10
8c0646fa  de 04        _mov.l @(r0,r13),r4
8c0646fc  b0 30        cmp/eq r11,r0
8c0646fe  07 89        bt 0x8c064710
8c064700  98 90        mov.w 0x8c064834,r0
8c064702  01 7e        add #0x1,r14
8c064704  0b 4c        jsr @r12
8c064706  de 04        _mov.l @(r0,r13),r4
8c064708  03 3e        cmp/ge r0,r14
8c06470a  f2 8b        bf 0x8c0646f2
8c06470c  da af        bra 0x8c0646c4
8c06470e  09 00        _nop
8c064710  91 90        mov.w 0x8c064836,r0
8c064712  08 4e        shll2 r14
8c064714  de 06        mov.l @(r0,r13),r6
8c064716  e3 60        mov r14,r0
8c064718  6e 00        mov.l @(r0,r6),r0
8c06471a  d4 af        bra 0x8c0646c6
8c06471c  09 00        _nop
8c06471e  96 2f        mov.l r9,@-r15
8c064720  a6 2f        mov.l r10,@-r15
8c064722  b6 2f        mov.l r11,@-r15
8c064724  c6 2f        mov.l r12,@-r15
8c064726  d6 2f        mov.l r13,@-r15
8c064728  e6 2f        mov.l r14,@-r15
8c06472a  22 4f        sts.l PR,@-r15
8c06472c  11 46        cmp/pz r6
8c06472e  63 6c        mov r6,r12
8c064730  53 6b        mov r5,r11
8c064732  43 6d        mov r4,r13
8c064734  24 8f        bf/s 0x8c064780
8c064736  00 ee        _mov #0x0,r14
8c064738  7c 90        mov.w 0x8c064834,r0
8c06473a  42 d9        mov.l 0x8c064844,r9
8c06473c  0b 49        jsr @r9
8c06473e  de 04        _mov.l @(r0,r13),r4
8c064740  15 40        cmp/pl r0
8c064742  14 8b        bf 0x8c06476e
8c064744  40 da        mov.l 0x8c064848,r10
8c064746  75 90        mov.w 0x8c064834,r0
8c064748  02 e6        mov #0x2,r6
8c06474a  e3 65        mov r14,r5
8c06474c  0b 4a        jsr @r10
8c06474e  de 04        _mov.l @(r0,r13),r4
8c064750  b0 30        cmp/eq r11,r0
8c064752  06 8b        bf 0x8c064762
8c064754  6e 90        mov.w 0x8c064834,r0
8c064756  03 e6        mov #0x3,r6
8c064758  e3 65        mov r14,r5
8c06475a  0b 4a        jsr @r10
8c06475c  de 04        _mov.l @(r0,r13),r4
8c06475e  c0 30        cmp/eq r12,r0
8c064760  24 89        bt 0x8c0647ac
8c064762  67 90        mov.w 0x8c064834,r0
8c064764  01 7e        add #0x1,r14
8c064766  0b 49        jsr @r9
8c064768  de 04        _mov.l @(r0,r13),r4
8c06476a  03 3e        cmp/ge r0,r14
8c06476c  eb 8b        bf 0x8c064746
8c06476e  00 e0        mov #0x0,r0
8c064770  26 4f        lds.l @r15+,PR
8c064772  f6 6e        mov.l @r15+,r14
8c064774  f6 6d        mov.l @r15+,r13
8c064776  f6 6c        mov.l @r15+,r12
8c064778  f6 6b        mov.l @r15+,r11
8c06477a  f6 6a        mov.l @r15+,r10
8c06477c  0b 00        rts
8c06477e  f6 69        _mov.l @r15+,r9
8c064780  58 90        mov.w 0x8c064834,r0
8c064782  30 dc        mov.l 0x8c064844,r12
8c064784  0b 4c        jsr @r12
8c064786  de 04        _mov.l @(r0,r13),r4
8c064788  15 40        cmp/pl r0
8c06478a  f0 8b        bf 0x8c06476e
8c06478c  2e da        mov.l 0x8c064848,r10
8c06478e  51 90        mov.w 0x8c064834,r0
8c064790  02 e6        mov #0x2,r6
8c064792  e3 65        mov r14,r5
8c064794  0b 4a        jsr @r10
8c064796  de 04        _mov.l @(r0,r13),r4
8c064798  b0 30        cmp/eq r11,r0
8c06479a  07 89        bt 0x8c0647ac
8c06479c  4a 90        mov.w 0x8c064834,r0
8c06479e  01 7e        add #0x1,r14
8c0647a0  0b 4c        jsr @r12
8c0647a2  de 04        _mov.l @(r0,r13),r4
8c0647a4  03 3e        cmp/ge r0,r14
8c0647a6  f2 8b        bf 0x8c06478e
8c0647a8  e1 af        bra 0x8c06476e
8c0647aa  09 00        _nop
8c0647ac  44 90        mov.w 0x8c064838,r0
8c0647ae  08 4e        shll2 r14
8c0647b0  de 06        mov.l @(r0,r13),r6
8c0647b2  e3 60        mov r14,r0
8c0647b4  6e 00        mov.l @(r0,r6),r0
8c0647b6  db af        bra 0x8c064770
8c0647b8  09 00        _nop
8c0647ba  e6 2f        mov.l r14,@-r15
8c0647bc  22 4f        sts.l PR,@-r15
8c0647be  dc 7f        add #-0x24,r15
8c0647c0  43 6e        mov r4,r14
8c0647c2  38 7e        add #0x38,r14
8c0647c4  e3 62        mov r14,r2
8c0647c6  40 72        add #0x40,r2
8c0647c8  53 67        mov r5,r7
8c0647ca  22 65        mov.l @r2,r5
8c0647cc  21 56        mov.l @(0x4,r2),r6
8c0647ce  0c e0        mov #0xc,r0
8c0647d0  52 2f        mov.l r5,@r15
8c0647d2  f3 64        mov r15,r4
8c0647d4  61 1f        mov.l r6,@(0x4,r15)
8c0647d6  18 74        add #0x18,r4
8c0647d8  22 56        mov.l @(0x8,r2),r6
8c0647da  f3 62        mov r15,r2
8c0647dc  8d f8        fldi0 fr8
8c0647de  0c 72        add #0xc,r2
8c0647e0  87 ff        fmov fr8,@(r0,r15)
8c0647e2  10 e0        mov #0x10,r0
8c0647e4  62 1f        mov.l r6,@(0x8,r15)
8c0647e6  87 ff        fmov fr8,@(r0,r15)
8c0647e8  14 e0        mov #0x14,r0
8c0647ea  87 ff        fmov fr8,@(r0,r15)
8c0647ec  04 e0        mov #0x4,r0
8c0647ee  28 f7        fmov.s @r2,fr7
8c0647f0  78 f8        fmov.s @r7,fr8
8c0647f2  26 f6        fmov.s @(r0,r2),fr6
8c0647f4  81 f7        fsub fr8,fr7
8c0647f6  76 f8        fmov.s @(r0,r7),fr8
8c0647f8  08 e0        mov #0x8,r0
8c0647fa  81 f6        fsub fr8,fr6
8c0647fc  26 f9        fmov.s @(r0,r2),fr9
8c0647fe  76 f8        fmov.s @(r0,r7),fr8
8c064800  18 e0        mov #0x18,r0
8c064802  77 ff        fmov fr7,@(r0,r15)
8c064804  1c e0        mov #0x1c,r0
8c064806  81 f9        fsub fr8,fr9
8c064808  67 ff        fmov fr6,@(r0,r15)
8c06480a  20 e0        mov #0x20,r0
8c06480c  42 62        mov.l @r4,r2
8c06480e  41 56        mov.l @(0x4,r4),r6
8c064810  97 ff        fmov fr9,@(r0,r15)
8c064812  22 2f        mov.l r2,@r15
8c064814  42 52        mov.l @(0x8,r4),r2
8c064816  e3 64        mov r14,r4
8c064818  61 1f        mov.l r6,@(0x4,r15)
8c06481a  10 74        add #0x10,r4
8c06481c  22 1f        mov.l r2,@(0x8,r15)
8c06481e  0b d2        mov.l 0x8c06484c,r2
8c064820  0b 42        jsr @r2
