; range: 8c073460 - 8c0736c0

8c073460  09 00        _nop
8c073462  c2 84        mov.b @(0x2,r12),r0
8c073464  0d 96        mov.w 0x8c073482,r6
8c073466  69 20        and r6,r0
8c073468  c2 80        mov.b r0,@(0x2,r12)
8c07346a  c3 ae        bra 0x8c0731f4
8c07346c  09 00        _nop
8c07346e  08 d2        mov.l 0x8c073490,r2
8c073470  0b 42        jsr @r2
8c073472  b3 64        _mov r11,r4
8c073474  e8 af        bra 0x8c073448
8c073476  09 00        _nop
8c073478  04 04        undefined2 0404h
8c07347a  d0 00        undefined2 00D0h
8c07347c  05 06        undefined2 0605h
8c07347e  6c 07        undefined2 076Ch
8c073480  98 0a        undefined2 0A98h
8c073482  fe 00        undefined2 00FEh
8c073484  90 e7 09 8c  addr 8c09e790
8c073488  c8 e7 09 8c  addr 8c09e7c8
8c07348c  e4 e7 09 8c  addr 8c09e7e4
8c073490  9c 4d 08 8c  addr 8c084d9c
8c073494  58 dd        mov.l 0x8c0735f8,r13
8c073496  c3 62        mov r12,r2
8c073498  02 72        add #0x2,r2
8c07349a  04 e6        mov #0x4,r6
8c07349c  0b 4d        jsr @r13
8c07349e  63 61        _mov r6,r1
8c0734a0  05 88        cmp/eq #0x5,r0
8c0734a2  01 89        bt 0x8c0734a8
8c0734a4  a6 ae        bra 0x8c0731f4
8c0734a6  09 00        _nop
8c0734a8  c3 84        mov.b @(0x3,r12),r0
8c0734aa  0f e6        mov #0xf,r6
8c0734ac  f3 55        mov.l @(0xc,r15),r5
8c0734ae  69 20        and r6,r0
8c0734b0  9b 96        mov.w 0x8c0735ea,r6
8c0734b2  53 6b        mov r5,r11
8c0734b4  02 7b        add #0x2,r11
8c0734b6  6b 20        or r6,r0
8c0734b8  50 de        mov.l 0x8c0735fc,r14
8c0734ba  c3 80        mov.b r0,@(0x3,r12)
8c0734bc  06 e6        mov #0x6,r6
8c0734be  b3 62        mov r11,r2
8c0734c0  0b 4d        jsr @r13
8c0734c2  63 61        _mov r6,r1
8c0734c4  06 e6        mov #0x6,r6
8c0734c6  03 64        mov r0,r4
8c0734c8  c3 62        mov r12,r2
8c0734ca  0b 4e        jsr @r14
8c0734cc  63 61        _mov r6,r1
8c0734ce  8d 95        mov.w 0x8c0735ec,r5
8c0734d0  b3 62        mov r11,r2
8c0734d2  53 66        mov r5,r6
8c0734d4  0b 4d        jsr @r13
8c0734d6  53 61        _mov r5,r1
8c0734d8  88 95        mov.w 0x8c0735ec,r5
8c0734da  03 64        mov r0,r4
8c0734dc  c3 62        mov r12,r2
8c0734de  53 66        mov r5,r6
8c0734e0  0b 4e        jsr @r14
8c0734e2  53 61        _mov r5,r1
8c0734e4  83 90        mov.w 0x8c0735ee,r0
8c0734e6  b8 2b        tst r11,r11
8c0734e8  9e 0e        mov.l @(r0,r9),r14
8c0734ea  ff 89        bt 0x8c0734ec
8c0734ec  7e 95        mov.w 0x8c0735ec,r5
8c0734ee  b3 62        mov r11,r2
8c0734f0  53 66        mov r5,r6
8c0734f2  0b 4d        jsr @r13
8c0734f4  53 61        _mov r5,r1
8c0734f6  e8 52        mov.l @(0x20,r14),r2
8c0734f8  06 e4        mov #0x6,r4
8c0734fa  43 61        mov r4,r1
8c0734fc  07 02        mul.l r0,r2
8c0734fe  b3 62        mov r11,r2
8c073500  1a 06        sts MACL,r6
8c073502  0b 4d        jsr @r13
8c073504  67 1f        _mov.l r6,@(0x1c,r15)
8c073506  03 62        mov r0,r2
8c073508  72 90        mov.w 0x8c0735f0,r0
8c07350a  f7 56        mov.l @(0x1c,r15),r6
8c07350c  ee 04        mov.l @(r0,r14),r4
8c07350e  2c 36        add r2,r6
8c073510  f3 55        mov.l @(0xc,r15),r5
8c073512  08 46        shll2 r6
8c073514  63 60        mov r6,r0
8c073516  4e 02        mov.l @(r0,r4),r2
8c073518  50 32        cmp/eq r5,r2
8c07351a  29 02        movt r2
8c07351c  28 22        tst r2,r2
8c07351e  12 8b        bf 0x8c073546
8c073520  f3 55        mov.l @(0xc,r15),r5
8c073522  5a 84        mov.b @(0xa,r5),r0
8c073524  0c 62        extu.b r0,r2
8c073526  28 22        tst r2,r2
8c073528  07 8b        bf 0x8c07353a
8c07352a  c2 84        mov.b @(0x2,r12),r0
8c07352c  61 96        mov.w 0x8c0735f2,r6
8c07352e  69 20        and r6,r0
8c073530  01 e6        mov #0x1,r6
8c073532  6b 20        or r6,r0
8c073534  c2 80        mov.b r0,@(0x2,r12)
8c073536  5d ae        bra 0x8c0731f4
8c073538  09 00        _nop
8c07353a  c2 84        mov.b @(0x2,r12),r0
8c07353c  59 96        mov.w 0x8c0735f2,r6
8c07353e  69 20        and r6,r0
8c073540  c2 80        mov.b r0,@(0x2,r12)
8c073542  57 ae        bra 0x8c0731f4
8c073544  09 00        _nop
8c073546  2e d2        mov.l 0x8c073600,r2
8c073548  0b 42        jsr @r2
8c07354a  e3 64        _mov r14,r4
8c07354c  e8 af        bra 0x8c073520
8c07354e  09 00        _nop
8c073550  29 d4        mov.l 0x8c0735f8,r4
8c073552  c3 6e        mov r12,r14
8c073554  02 7e        add #0x2,r14
8c073556  04 e6        mov #0x4,r6
8c073558  e3 62        mov r14,r2
8c07355a  0b 44        jsr @r4
8c07355c  63 61        _mov r6,r1
8c07355e  03 88        cmp/eq #0x3,r0
8c073560  01 89        bt 0x8c073566
8c073562  47 ae        bra 0x8c0731f4
8c073564  09 00        _nop
8c073566  f3 55        mov.l @(0xc,r15),r5
8c073568  04 e6        mov #0x4,r6
8c07356a  26 d4        mov.l 0x8c073604,r4
8c07356c  63 61        mov r6,r1
8c07356e  53 6d        mov r5,r13
8c073570  09 7d        add #0x9,r13
8c073572  0b 44        jsr @r4
8c073574  d3 62        _mov r13,r2
8c073576  0c 66        extu.b r0,r6
8c073578  f2 55        mov.l @(0x8,r15),r5
8c07357a  08 46        shll2 r6
8c07357c  5c 36        add r5,r6
8c07357e  62 62        mov.l @r6,r2
8c073580  28 22        tst r2,r2
8c073582  01 8b        bf 0x8c073588
8c073584  36 ae        bra 0x8c0731f4
8c073586  09 00        _nop
8c073588  29 50        mov.l @(0x24,r2),r0
8c07358a  01 88        cmp/eq #0x1,r0
8c07358c  01 8b        bf 0x8c073592
8c07358e  31 ae        bra 0x8c0731f4
8c073590  09 00        _nop
8c073592  c3 84        mov.b @(0x3,r12),r0
8c073594  0f e6        mov #0xf,r6
8c073596  1b d4        mov.l 0x8c073604,r4
8c073598  d3 62        mov r13,r2
8c07359a  69 20        and r6,r0
8c07359c  2a 96        mov.w 0x8c0735f4,r6
8c07359e  6b 20        or r6,r0
8c0735a0  c3 80        mov.b r0,@(0x3,r12)
8c0735a2  04 e6        mov #0x4,r6
8c0735a4  0b 44        jsr @r4
8c0735a6  63 61        _mov r6,r1
8c0735a8  25 96        mov.w 0x8c0735f6,r6
8c0735aa  03 64        mov r0,r4
8c0735ac  13 d5        mov.l 0x8c0735fc,r5
8c0735ae  e3 62        mov r14,r2
8c0735b0  0b 45        jsr @r5
8c0735b2  63 61        _mov r6,r1
8c0735b4  f3 55        mov.l @(0xc,r15),r5
8c0735b6  5a 84        mov.b @(0xa,r5),r0
8c0735b8  0c 62        extu.b r0,r2
8c0735ba  28 22        tst r2,r2
8c0735bc  0f 8b        bf 0x8c0735de
8c0735be  c2 84        mov.b @(0x2,r12),r0
8c0735c0  17 96        mov.w 0x8c0735f2,r6
8c0735c2  69 20        and r6,r0
8c0735c4  01 e6        mov #0x1,r6
8c0735c6  6b 20        or r6,r0
8c0735c8  c2 80        mov.b r0,@(0x2,r12)
8c0735ca  13 ae        bra 0x8c0731f4
8c0735cc  09 00        _nop
8c0735ce  5a 84        mov.b @(0xa,r5),r0
8c0735d0  0c 60        extu.b r0,r0
8c0735d2  0d 88        cmp/eq #0xd,r0
8c0735d4  18 8b        bf 0x8c073608
8c0735d6  03 e0        mov #0x3,r0
8c0735d8  58 80        mov.b r0,@(0x8,r5)
8c0735da  0b ae        bra 0x8c0731f4
8c0735dc  09 00        _nop
8c0735de  c2 84        mov.b @(0x2,r12),r0
8c0735e0  07 96        mov.w 0x8c0735f2,r6
8c0735e2  69 20        and r6,r0
8c0735e4  c2 80        mov.b r0,@(0x2,r12)
8c0735e6  05 ae        bra 0x8c0731f4
8c0735e8  09 00        _nop
8c0735ea  c0 00        undefined2 00C0h
8c0735ec  05 06        undefined2 0605h
8c0735ee  6c 07        undefined2 076Ch
8c0735f0  98 0a        undefined2 0A98h
8c0735f2  fe 00        undefined2 00FEh
8c0735f4  b0 00        undefined2 00B0h
8c0735f6  04 04        undefined2 0404h
8c0735f8  e4 e7 09 8c  addr 8c09e7e4
8c0735fc  90 e7 09 8c  addr 8c09e790
8c073600  9c 4d 08 8c  addr 8c084d9c
8c073604  c8 e7 09 8c  addr 8c09e7c8
8c073608  2b dd        mov.l 0x8c0736b8,r13
8c07360a  c3 6e        mov r12,r14
8c07360c  02 7e        add #0x2,r14
8c07360e  04 e6        mov #0x4,r6
8c073610  e3 62        mov r14,r2
8c073612  0b 4d        jsr @r13
8c073614  63 61        _mov r6,r1
8c073616  04 88        cmp/eq #0x4,r0
8c073618  01 8b        bf 0x8c07361e
8c07361a  eb ad        bra 0x8c0731f4
8c07361c  09 00        _nop
8c07361e  04 e6        mov #0x4,r6
8c073620  e3 62        mov r14,r2
8c073622  0b 4d        jsr @r13
8c073624  63 61        _mov r6,r1
8c073626  08 20        tst r0,r0
8c073628  01 8b        bf 0x8c07362e
8c07362a  e3 ad        bra 0x8c0731f4
8c07362c  09 00        _nop
8c07362e  c3 84        mov.b @(0x3,r12),r0
8c073630  0f e6        mov #0xf,r6
8c073632  f3 55        mov.l @(0xc,r15),r5
8c073634  69 20        and r6,r0
8c073636  40 e6        mov #0x40,r6
8c073638  53 6e        mov r5,r14
8c07363a  6b 20        or r6,r0
8c07363c  c3 80        mov.b r0,@(0x3,r12)
8c07363e  28 7e        add #0x28,r14
8c073640  04 e6        mov #0x4,r6
8c073642  e3 62        mov r14,r2
8c073644  0b 4d        jsr @r13
8c073646  63 61        _mov r6,r1
8c073648  01 c8        tst #0x1,r0
8c07364a  05 89        bt 0x8c073658
8c07364c  c2 84        mov.b @(0x2,r12),r0
8c07364e  31 96        mov.w 0x8c0736b4,r6
8c073650  69 20        and r6,r0
8c073652  c2 80        mov.b r0,@(0x2,r12)
8c073654  ce ad        bra 0x8c0731f4
8c073656  09 00        _nop
8c073658  04 e6        mov #0x4,r6
8c07365a  e3 62        mov r14,r2
8c07365c  0b 4d        jsr @r13
8c07365e  63 61        _mov r6,r1
8c073660  02 c8        tst #0x2,r0
8c073662  07 89        bt 0x8c073674
8c073664  c2 84        mov.b @(0x2,r12),r0
8c073666  25 96        mov.w 0x8c0736b4,r6
8c073668  69 20        and r6,r0
8c07366a  02 e6        mov #0x2,r6
8c07366c  6b 20        or r6,r0
8c07366e  c2 80        mov.b r0,@(0x2,r12)
8c073670  c0 ad        bra 0x8c0731f4
8c073672  09 00        _nop
8c073674  04 e6        mov #0x4,r6
8c073676  e3 62        mov r14,r2
8c073678  0b 4d        jsr @r13
8c07367a  63 61        _mov r6,r1
8c07367c  04 c8        tst #0x4,r0
8c07367e  07 89        bt 0x8c073690
8c073680  c2 84        mov.b @(0x2,r12),r0
8c073682  17 96        mov.w 0x8c0736b4,r6
8c073684  69 20        and r6,r0
8c073686  04 e6        mov #0x4,r6
8c073688  6b 20        or r6,r0
8c07368a  c2 80        mov.b r0,@(0x2,r12)
8c07368c  b2 ad        bra 0x8c0731f4
8c07368e  09 00        _nop
8c073690  04 e6        mov #0x4,r6
8c073692  e3 62        mov r14,r2
8c073694  0b 4d        jsr @r13
8c073696  63 61        _mov r6,r1
8c073698  08 c8        tst #0x8,r0
8c07369a  01 8b        bf 0x8c0736a0
8c07369c  aa ad        bra 0x8c0731f4
8c07369e  09 00        _nop
8c0736a0  c2 84        mov.b @(0x2,r12),r0
8c0736a2  07 96        mov.w 0x8c0736b4,r6
8c0736a4  69 20        and r6,r0
8c0736a6  06 e6        mov #0x6,r6
8c0736a8  6b 20        or r6,r0
8c0736aa  c2 80        mov.b r0,@(0x2,r12)
8c0736ac  a2 ad        bra 0x8c0731f4
8c0736ae  09 00        _nop
8c0736b0  f5 ad        bra 0x8c07329e
8c0736b2  c9 24        _and r12,r4
8c0736b4  f9 00        undefined2 00F9h
8c0736b6  00           ?? 00h
8c0736b7  00           ?? 00h
8c0736b8  e4 e7 09 8c  addr 8c09e7e4
8c0736bc  86 2f        mov.l r8,@-r15
8c0736be  96 2f        mov.l r9,@-r15
8c0736c0  a6 2f        mov.l r10,@-r15
