; range: 8c0743ec - 8c074b20

8c0743ec  86 2f        mov.l r8,@-r15
8c0743ee  96 2f        mov.l r9,@-r15
8c0743f0  a6 2f        mov.l r10,@-r15
8c0743f2  b6 2f        mov.l r11,@-r15
8c0743f4  c6 2f        mov.l r12,@-r15
8c0743f6  d6 2f        mov.l r13,@-r15
8c0743f8  e6 2f        mov.l r14,@-r15
8c0743fa  eb ff        fmov.s fr14,@-r15
8c0743fc  22 4f        sts.l PR,@-r15
8c0743fe  d8 7f        add #-0x28,r15
8c074400  12 e0        mov #0x12,r0
8c074402  7e 96        mov.w 0x8c074502,r6
8c074404  4c 00        mov.b @(r0,r4),r0
8c074406  69 20        and r6,r0
8c074408  0f 88        cmp/eq #0xf,r0
8c07440a  6a 8f        bf/s 0x8c0744e2
8c07440c  43 69        _mov r4,r9
8c07440e  79 90        mov.w 0x8c074504,r0
8c074410  00 e7        mov #0x0,r7
8c074412  93 66        mov r9,r6
8c074414  77 1f        mov.l r7,@(0x1c,r15)
8c074416  9e 02        mov.l @(r0,r9),r2
8c074418  70 e0        mov #0x70,r0
8c07441a  08 ec        mov #0x8,r12
8c07441c  2e 0d        mov.l @(r0,r2),r13
8c07441e  3c c7        mova 0x8c074510,r0
8c074420  71 92        mov.w 0x8c074506,r2
8c074422  08 fe        fmov.s @r0,fr14
8c074424  2c 36        add r2,r6
8c074426  68 1f        mov.l r6,@(0x20,r15)
8c074428  93 60        mov r9,r0
8c07442a  3e 70        add #0x3e,r0
8c07442c  7c 02        mov.b @(r0,r7),r2
8c07442e  2c 60        extu.b r2,r0
8c074430  01 88        cmp/eq #0x1,r0
8c074432  14 8b        bf 0x8c07445e
8c074434  f8 50        mov.l @(0x20,r15),r0
8c074436  73 62        mov r7,r2
8c074438  08 42        shll2 r2
8c07443a  2e 0b        mov.l @(r0,r2),r11
8c07443c  b8 2b        tst r11,r11
8c07443e  0e 89        bt 0x8c07445e
8c074440  d2 84        mov.b @(0x2,r13),r0
8c074442  0c 66        extu.b r0,r6
8c074444  63 60        mov r6,r0
8c074446  08 c8        tst #0x8,r0
8c074448  01 8b        bf 0x8c07444e
8c07444a  1d a1        bra 0x8c074688
8c07444c  09 00        _nop
8c07444e  93 60        mov r9,r0
8c074450  3e 70        add #0x3e,r0
8c074452  7c 02        mov.b @(r0,r7),r2
8c074454  2c 60        extu.b r2,r0
8c074456  03 88        cmp/eq #0x3,r0
8c074458  01 89        bt 0x8c07445e
8c07445a  9f a0        bra 0x8c07459c
8c07445c  09 00        _nop
8c07445e  f7 57        mov.l @(0x1c,r15),r7
8c074460  10 4c        dt r12
8c074462  04 7d        add #0x4,r13
8c074464  01 77        add #0x1,r7
8c074466  df 8f        bf/s 0x8c074428
8c074468  77 1f        _mov.l r7,@(0x1c,r15)
8c07446a  2a d3        mov.l 0x8c074514,r3
8c07446c  0b 43        jsr @r3
8c07446e  93 64        _mov r9,r4
8c074470  48 90        mov.w 0x8c074504,r0
8c074472  29 d3        mov.l 0x8c074518,r3
8c074474  9e 02        mov.l @(r0,r9),r2
8c074476  6c e0        mov #0x6c,r0
8c074478  2e 0c        mov.l @(r0,r2),r12
8c07447a  68 e0        mov #0x68,r0
8c07447c  2e 0b        mov.l @(r0,r2),r11
8c07447e  43 90        mov.w 0x8c074508,r0
8c074480  96 f9        fmov.s @(r0,r9),fr9
8c074482  42 90        mov.w 0x8c07450a,r0
8c074484  96 f8        fmov.s @(r0,r9),fr8
8c074486  25 c7        mova 0x8c07451c,r0
8c074488  08 f6        fmov.s @r0,fr6
8c07448a  81 f9        fsub fr8,fr9
8c07448c  6c f8        fmov fr6,fr8
8c07448e  38 f6        fmov.s @r3,fr6
8c074490  63 f8        fdiv fr6,fr8
8c074492  95 f8        fcmp/gt fr9,fr8
8c074494  44 8b        bf 0x8c074520
8c074496  39 90        mov.w 0x8c07450c,r0
8c074498  00 e7        mov #0x0,r7
8c07449a  9e 0e        mov.l @(r0,r9),r14
8c07449c  15 4e        cmp/pl r14
8c07449e  1e 8f        bf/s 0x8c0744de
8c0744a0  00 e4        _mov #0x0,r4
8c0744a2  07 ea        mov #0x7,r10
8c0744a4  11 44        cmp/pz r4
8c0744a6  01 8d        bt/s 0x8c0744ac
8c0744a8  43 66        _mov r4,r6
8c0744aa  07 76        add #0x7,r6
8c0744ac  21 46        shar r6
8c0744ae  c3 60        mov r12,r0
8c0744b0  21 46        shar r6
8c0744b2  43 65        mov r4,r5
8c0744b4  21 46        shar r6
8c0744b6  11 44        cmp/pz r4
8c0744b8  6c 02        mov.b @(r0,r6),r2
8c0744ba  02 8f        bf/s 0x8c0744c2
8c0744bc  2c 62        _extu.b r2,r2
8c0744be  11 a3        bra 0x8c074ae4
8c0744c0  09 00        _nop
8c0744c2  57 65        not r5,r5
8c0744c4  01 75        add #0x1,r5
8c0744c6  a9 25        and r10,r5
8c0744c8  57 65        not r5,r5
8c0744ca  01 75        add #0x1,r5
8c0744cc  5b 66        neg r5,r6
8c0744ce  6c 42        shad r6,r2
8c0744d0  23 60        mov r2,r0
8c0744d2  01 c8        tst #0x1,r0
8c0744d4  00 8b        bf 0x8c0744d8
8c0744d6  01 77        add #0x1,r7
8c0744d8  01 74        add #0x1,r4
8c0744da  e3 34        cmp/ge r14,r4
8c0744dc  e2 8b        bf 0x8c0744a4
8c0744de  15 47        cmp/pl r7
8c0744e0  1e 8b        bf 0x8c074520
8c0744e2  0f 90        mov.w 0x8c074504,r0
8c0744e4  00 e6        mov #0x0,r6
8c0744e6  9e 02        mov.l @(r0,r9),r2
8c0744e8  44 e0        mov #0x44,r0
8c0744ea  66 02        mov.l r6,@(r0,r2)
8c0744ec  28 7f        add #0x28,r15
8c0744ee  26 4f        lds.l @r15+,PR
8c0744f0  f9 fe        fmov.s @r15+,fr14
8c0744f2  f6 6e        mov.l @r15+,r14
8c0744f4  f6 6d        mov.l @r15+,r13
8c0744f6  f6 6c        mov.l @r15+,r12
8c0744f8  f6 6b        mov.l @r15+,r11
8c0744fa  f6 6a        mov.l @r15+,r10
8c0744fc  f6 69        mov.l @r15+,r9
8c0744fe  0b 00        rts
8c074500  f6 68        _mov.l @r15+,r8
8c074502  ff 00        undefined2 00FFh
8c074504  b4 08        undefined2 08B4h
8c074506  48 07        undefined2 0748h
8c074508  c0 08        undefined2 08C0h
8c07450a  bc 08        undefined2 08BCh
8c07450c  9c 08        undefined2 089Ch
8c07450e  00           ?? 00h
8c07450f  00           ?? 00h
8c074510  00 00 70 41  undefined4 41700000h
8c074514  78 5a 07 8c  addr 8c075a78
8c074518  4c 58 28 8c  undefined4 8C28584Ch
8c07451c  00 00 b4 42  undefined4 42B40000h
8c074520  a4 90        mov.w 0x8c07466c,r0
8c074522  9e 04        mov.l @(r0,r9),r4
8c074524  15 44        cmp/pl r4
8c074526  dc 8f        bf/s 0x8c0744e2
8c074528  00 ed        _mov #0x0,r13
8c07452a  07 ea        mov #0x7,r10
8c07452c  11 4d        cmp/pz r13
8c07452e  02 8f        bf/s 0x8c074536
8c074530  d3 6e        _mov r13,r14
8c074532  d9 a2        bra 0x8c074ae8
8c074534  09 00        _nop
8c074536  e7 6e        not r14,r14
8c074538  01 7e        add #0x1,r14
8c07453a  a9 2e        and r10,r14
8c07453c  e7 6e        not r14,r14
8c07453e  01 7e        add #0x1,r14
8c074540  11 4d        cmp/pz r13
8c074542  01 8d        bt/s 0x8c074548
8c074544  d3 66        _mov r13,r6
8c074546  07 76        add #0x7,r6
8c074548  21 46        shar r6
8c07454a  21 46        shar r6
8c07454c  21 46        shar r6
8c07454e  63 60        mov r6,r0
8c074550  cc 02        mov.b @(r0,r12),r2
8c074552  eb 65        neg r14,r5
8c074554  2c 60        extu.b r2,r0
8c074556  5c 40        shad r5,r0
8c074558  01 c8        tst #0x1,r0
8c07455a  07 8f        bf/s 0x8c07456c
8c07455c  69 1f        _mov.l r6,@(0x24,r15)
8c07455e  63 60        mov r6,r0
8c074560  bc 02        mov.b @(r0,r11),r2
8c074562  2c 60        extu.b r2,r0
8c074564  eb 62        neg r14,r2
8c074566  2c 40        shad r2,r0
8c074568  01 c8        tst #0x1,r0
8c07456a  04 8b        bf 0x8c074576
8c07456c  01 7d        add #0x1,r13
8c07456e  43 3d        cmp/ge r4,r13
8c074570  dc 8b        bf 0x8c07452c
8c074572  b6 af        bra 0x8c0744e2
8c074574  09 00        _nop
8c074576  7a 90        mov.w 0x8c07466e,r0
8c074578  d3 65        mov r13,r5
8c07457a  3f d2        mov.l 0x8c074678,r2
8c07457c  0b 42        jsr @r2
8c07457e  9e 04        _mov.l @(r0,r9),r4
8c074580  f9 56        mov.l @(0x24,r15),r6
8c074582  b3 65        mov r11,r5
8c074584  01 e2        mov #0x1,r2
8c074586  71 90        mov.w 0x8c07466c,r0
8c074588  6c 35        add r6,r5
8c07458a  50 66        mov.b @r5,r6
8c07458c  ec 42        shad r14,r2
8c07458e  27 62        not r2,r2
8c074590  6c 66        extu.b r6,r6
8c074592  29 26        and r2,r6
8c074594  60 25        mov.b r6,@r5
8c074596  9e 04        mov.l @(r0,r9),r4
8c074598  e8 af        bra 0x8c07456c
8c07459a  09 00        _nop
8c07459c  93 66        mov r9,r6
8c07459e  3e 76        add #0x3e,r6
8c0745a0  73 62        mov r7,r2
8c0745a2  6c 32        add r6,r2
8c0745a4  03 e6        mov #0x3,r6
8c0745a6  f8 5e        mov.l @(0x20,r15),r14
8c0745a8  60 22        mov.b r6,@r2
8c0745aa  73 62        mov r7,r2
8c0745ac  08 42        shll2 r2
8c0745ae  e3 60        mov r14,r0
8c0745b0  2e 04        mov.l @(r0,r2),r4
8c0745b2  32 d2        mov.l 0x8c07467c,r2
8c0745b4  0b 42        jsr @r2
8c0745b6  09 00        _nop
8c0745b8  f7 57        mov.l @(0x1c,r15),r7
8c0745ba  73 60        mov r7,r0
8c0745bc  08 40        shll2 r0
8c0745be  ee 06        mov.l @(r0,r14),r6
8c0745c0  e3 60        mov r14,r0
8c0745c2  6a 52        mov.l @(0x28,r6),r2
8c0745c4  29 56        mov.l @(0x24,r2),r6
8c0745c6  2b 55        mov.l @(0x2c,r2),r5
8c0745c8  73 62        mov r7,r2
8c0745ca  08 42        shll2 r2
8c0745cc  2e 04        mov.l @(r0,r2),r4
8c0745ce  0b 45        jsr @r5
8c0745d0  6c 34        _add r6,r4
8c0745d2  f7 57        mov.l @(0x1c,r15),r7
8c0745d4  e3 60        mov r14,r0
8c0745d6  73 62        mov r7,r2
8c0745d8  08 42        shll2 r2
8c0745da  2e 06        mov.l @(r0,r2),r6
8c0745dc  68 26        tst r6,r6
8c0745de  19 89        bt 0x8c074614
8c0745e0  f8 50        mov.l @(0x20,r15),r0
8c0745e2  73 62        mov r7,r2
8c0745e4  08 42        shll2 r2
8c0745e6  2e 06        mov.l @(r0,r2),r6
8c0745e8  68 26        tst r6,r6
8c0745ea  0c 89        bt 0x8c074606
8c0745ec  f8 5e        mov.l @(0x20,r15),r14
8c0745ee  73 60        mov r7,r0
8c0745f0  08 40        shll2 r0
8c0745f2  ee 06        mov.l @(r0,r14),r6
8c0745f4  08 47        shll2 r7
8c0745f6  e3 60        mov r14,r0
8c0745f8  7e 04        mov.l @(r0,r7),r4
8c0745fa  6a 52        mov.l @(0x28,r6),r2
8c0745fc  03 e5        mov #0x3,r5
8c0745fe  23 56        mov.l @(0xc,r2),r6
8c074600  25 5b        mov.l @(0x14,r2),r11
8c074602  0b 4b        jsr @r11
8c074604  6c 34        _add r6,r4
8c074606  f7 57        mov.l @(0x1c,r15),r7
8c074608  00 e2        mov #0x0,r2
8c07460a  f8 55        mov.l @(0x20,r15),r5
8c07460c  73 66        mov r7,r6
8c07460e  08 46        shll2 r6
8c074610  5c 36        add r5,r6
8c074612  22 26        mov.l r2,@r6
8c074614  2c 90        mov.w 0x8c074670,r0
8c074616  01 e5        mov #0x1,r5
8c074618  7c 45        shad r7,r5
8c07461a  71 1f        mov.l r7,@(0x4,r15)
8c07461c  9e 06        mov.l @(r0,r9),r6
8c07461e  93 64        mov r9,r4
8c074620  27 90        mov.w 0x8c074672,r0
8c074622  6e 02        mov.l @(r0,r6),r2
8c074624  5b 22        or r5,r2
8c074626  26 06        mov.l r2,@(r0,r6)
8c074628  18 e6        mov #0x18,r6
8c07462a  21 90        mov.w 0x8c074670,r0
8c07462c  9e 02        mov.l @(r0,r9),r2
8c07462e  48 e0        mov #0x48,r0
8c074630  66 02        mov.l r6,@(r0,r2)
8c074632  13 d2        mov.l 0x8c074680,r2
8c074634  13 d3        mov.l 0x8c074684,r3
8c074636  0b 43        jsr @r3
8c074638  22 2f        _mov.l r2,@r15
8c07463a  18 90        mov.w 0x8c07466e,r0
8c07463c  f7 55        mov.l @(0x1c,r15),r5
8c07463e  9e 02        mov.l @(r0,r9),r2
8c074640  18 90        mov.w 0x8c074674,r0
8c074642  2e 06        mov.l @(r0,r2),r6
8c074644  17 92        mov.w 0x8c074676,r2
8c074646  57 02        mul.l r5,r2
8c074648  1a 02        sts MACL,r2
8c07464a  6c 32        add r6,r2
8c07464c  28 22        tst r2,r2
8c07464e  01 8b        bf 0x8c074654
8c074650  05 af        bra 0x8c07445e
8c074652  09 00        _nop
8c074654  21 65        mov.w @r2,r5
8c074656  5d 65        extu.w r5,r5
8c074658  53 60        mov r5,r0
8c07465a  01 c8        tst #0x1,r0
8c07465c  01 8b        bf 0x8c074662
8c07465e  fe ae        bra 0x8c07445e
8c074660  09 00        _nop
8c074662  fe e4        mov #-0x2,r4
8c074664  53 66        mov r5,r6
8c074666  49 26        and r4,r6
8c074668  f9 ae        bra 0x8c07445e
8c07466a  61 22        _mov.w r6,@r2
8c07466c  9c 08        undefined2 089Ch
8c07466e  6c 07        undefined2 076Ch
8c074670  b4 08        undefined2 08B4h
8c074672  98 00        undefined2 0098h
8c074674  b0 0a        undefined2 0AB0h
8c074676  f4 15        undefined2 15F4h
8c074678  4a 10 09 8c  addr 8c09104a
8c07467c  b6 ee 04 8c  addr 8c04eeb6
8c074680  08 54 18 8c  addr 8c185408
8c074684  58 94 07 8c  addr 8c079458
8c074688  6c 60        extu.b r6,r0
8c07468a  04 c8        tst #0x4,r0
8c07468c  1a 89        bt 0x8c0746c4
8c07468e  87 92        mov.w 0x8c0747a0,r2
8c074690  b3 66        mov r11,r6
8c074692  2c 36        add r2,r6
8c074694  62 84        mov.b @(0x2,r6),r0
8c074696  0c 60        extu.b r0,r0
8c074698  04 c8        tst #0x4,r0
8c07469a  13 8b        bf 0x8c0746c4
8c07469c  81 90        mov.w 0x8c0747a2,r0
8c07469e  9e 02        mov.l @(r0,r9),r2
8c0746a0  80 90        mov.w 0x8c0747a4,r0
8c0746a2  2e 05        mov.l @(r0,r2),r5
8c0746a4  7f 92        mov.w 0x8c0747a6,r2
8c0746a6  77 02        mul.l r7,r2
8c0746a8  1a 02        sts MACL,r2
8c0746aa  2c 35        add r2,r5
8c0746ac  5b 84        mov.b @(0xb,r5),r0
8c0746ae  0c 66        extu.b r0,r6
8c0746b0  63 60        mov r6,r0
8c0746b2  06 c8        tst #0x6,r0
8c0746b4  06 89        bt 0x8c0746c4
8c0746b6  f9 e4        mov #-0x7,r4
8c0746b8  63 60        mov r6,r0
8c0746ba  49 20        and r4,r0
8c0746bc  8d f8        fldi0 fr8
8c0746be  5b 80        mov.b r0,@(0xb,r5)
8c0746c0  24 e0        mov #0x24,r0
8c0746c2  87 f5        fmov fr8,@(r0,r5)
8c0746c4  3c da        mov.l 0x8c0747b8,r10
8c0746c6  06 e6        mov #0x6,r6
8c0746c8  3c de        mov.l 0x8c0747bc,r14
8c0746ca  d3 62        mov r13,r2
8c0746cc  6c 98        mov.w 0x8c0747a8,r8
8c0746ce  0b 4a        jsr @r10
8c0746d0  63 61        _mov r6,r1
8c0746d2  f3 62        mov r15,r2
8c0746d4  18 72        add #0x18,r2
8c0746d6  06 e6        mov #0x6,r6
8c0746d8  03 65        mov r0,r5
8c0746da  0b 4e        jsr @r14
8c0746dc  63 61        _mov r6,r1
8c0746de  d3 62        mov r13,r2
8c0746e0  83 66        mov r8,r6
8c0746e2  0b 4a        jsr @r10
8c0746e4  83 61        _mov r8,r1
8c0746e6  f3 62        mov r15,r2
8c0746e8  18 72        add #0x18,r2
8c0746ea  03 65        mov r0,r5
8c0746ec  83 66        mov r8,r6
8c0746ee  83 61        mov r8,r1
8c0746f0  0b 4e        jsr @r14
8c0746f2  0f ea        _mov #0xf,r10
8c0746f4  d0 60        mov.b @r13,r0
8c0746f6  58 94        mov.w 0x8c0747aa,r4
8c0746f8  10 c8        tst #0x10,r0
8c0746fa  29 02        movt r2
8c0746fc  43 66        mov r4,r6
8c0746fe  ff 72        add #-0x1,r2
8c074700  43 61        mov r4,r1
8c074702  2b 65        neg r2,r5
8c074704  f3 62        mov r15,r2
8c074706  18 72        add #0x18,r2
8c074708  0b 4e        jsr @r14
8c07470a  53 60        _mov r5,r0
8c07470c  d0 65        mov.b @r13,r5
8c07470e  f3 62        mov r15,r2
8c074710  4c 94        mov.w 0x8c0747ac,r4
8c074712  18 72        add #0x18,r2
8c074714  a9 25        and r10,r5
8c074716  43 66        mov r4,r6
8c074718  43 61        mov r4,r1
8c07471a  0b 4e        jsr @r14
8c07471c  53 60        _mov r5,r0
8c07471e  d2 84        mov.b @(0x2,r13),r0
8c074720  27 d1        mov.l 0x8c0747c0,r1
8c074722  03 62        mov r0,r2
8c074724  1a e0        mov #0x1a,r0
8c074726  24 0f        mov.b r2,@(r0,r15)
8c074728  d3 84        mov.b @(0x3,r13),r0
8c07472a  18 f6        fmov.s @r1,fr6
8c07472c  0c 62        extu.b r0,r2
8c07472e  a9 22        and r10,r2
8c074730  1b e0        mov #0x1b,r0
8c074732  24 0f        mov.b r2,@(r0,r15)
8c074734  3b 90        mov.w 0x8c0747ae,r0
8c074736  96 f9        fmov.s @(r0,r9),fr9
8c074738  3a 90        mov.w 0x8c0747b0,r0
8c07473a  96 f8        fmov.s @(r0,r9),fr8
8c07473c  81 f9        fsub fr8,fr9
8c07473e  ec f8        fmov fr14,fr8
8c074740  63 f8        fdiv fr6,fr8
8c074742  95 f8        fcmp/gt fr9,fr8
8c074744  01 8b        bf 0x8c07474a
8c074746  53 a1        bra 0x8c0749f0
8c074748  09 00        _nop
8c07474a  1b d5        mov.l 0x8c0747b8,r5
8c07474c  f3 62        mov r15,r2
8c07474e  18 72        add #0x18,r2
8c074750  06 e6        mov #0x6,r6
8c074752  0b 45        jsr @r5
8c074754  63 61        _mov r6,r1
8c074756  0d 62        extu.w r0,r2
8c074758  03 6e        mov r0,r14
8c07475a  01 e6        mov #0x1,r6
8c07475c  63 32        cmp/ge r6,r2
8c07475e  33 8b        bf 0x8c0747c8
8c074760  27 90        mov.w 0x8c0747b2,r0
8c074762  ed 66        extu.w r14,r6
8c074764  9e 02        mov.l @(r0,r9),r2
8c074766  23 36        cmp/ge r2,r6
8c074768  2e 89        bt 0x8c0747c8
8c07476a  1d 96        mov.w 0x8c0747a8,r6
8c07476c  f3 62        mov r15,r2
8c07476e  12 d5        mov.l 0x8c0747b8,r5
8c074770  18 72        add #0x18,r2
8c074772  0b 45        jsr @r5
8c074774  63 61        _mov r6,r1
8c074776  0d 62        extu.w r0,r2
8c074778  03 65        mov r0,r5
8c07477a  01 e6        mov #0x1,r6
8c07477c  63 32        cmp/ge r6,r2
8c07477e  01 89        bt 0x8c074784
8c074780  aa a0        bra 0x8c0748d8
8c074782  09 00        _nop
8c074784  16 90        mov.w 0x8c0747b4,r0
8c074786  5d 66        extu.w r5,r6
8c074788  9e 02        mov.l @(r0,r9),r2
8c07478a  23 36        cmp/ge r2,r6
8c07478c  01 8b        bf 0x8c074792
8c07478e  a3 a0        bra 0x8c0748d8
8c074790  09 00        _nop
8c074792  0c d2        mov.l 0x8c0747c4,r2
8c074794  f3 65        mov r15,r5
8c074796  18 75        add #0x18,r5
8c074798  0b 42        jsr @r2
8c07479a  b3 64        _mov r11,r4
8c07479c  5f ae        bra 0x8c07445e
8c07479e  09 00        _nop
8c0747a0  e4 00        undefined2 00E4h
8c0747a2  6c 07        undefined2 076Ch
8c0747a4  b0 0a        undefined2 0AB0h
8c0747a6  f4 15        undefined2 15F4h
8c0747a8  05 06        undefined2 0605h
8c0747aa  01 0b        undefined2 0B01h
8c0747ac  04 0c        undefined2 0C04h
8c0747ae  c0 08        undefined2 08C0h
8c0747b0  bc 08        undefined2 08BCh
8c0747b2  94 08        undefined2 0894h
8c0747b4  98 08        undefined2 0898h
8c0747b6  00           ?? 00h
8c0747b7  00           ?? 00h
8c0747b8  e4 e7 09 8c  addr 8c09e7e4
8c0747bc  90 e7 09 8c  addr 8c09e790
8c0747c0  4c 58 28 8c  undefined4 8C28584Ch
8c0747c4  44 f6 01 8c  addr 8c01f644
8c0747c8  3c d6        mov.l 0x8c0748bc,r6
8c0747ca  ed 62        extu.w r14,r2
8c0747cc  f7 57        mov.l @(0x1c,r15),r7
8c0747ce  93 64        mov r9,r4
8c0747d0  62 2f        mov.l r6,@r15
8c0747d2  21 1f        mov.l r2,@(0x4,r15)
8c0747d4  3a d3        mov.l 0x8c0748c0,r3
8c0747d6  0b 43        jsr @r3
8c0747d8  72 1f        _mov.l r7,@(0x8,r15)
8c0747da  69 90        mov.w 0x8c0748b0,r0
8c0747dc  f3 66        mov r15,r6
8c0747de  39 d2        mov.l 0x8c0748c4,r2
8c0747e0  14 76        add #0x14,r6
8c0747e2  9e 04        mov.l @(r0,r9),r4
8c0747e4  0b 42        jsr @r2
8c0747e6  f7 55        _mov.l @(0x1c,r15),r5
8c0747e8  08 20        tst r0,r0
8c0747ea  0a 89        bt 0x8c074802
8c0747ec  14 e0        mov #0x14,r0
8c0747ee  60 96        mov.w 0x8c0748b2,r6
8c0747f0  fc 02        mov.b @(r0,r15),r2
8c0747f2  69 22        and r6,r2
8c0747f4  10 e6        mov #0x10,r6
8c0747f6  6b 22        or r6,r2
8c0747f8  5c 96        mov.w 0x8c0748b4,r6
8c0747fa  69 22        and r6,r2
8c0747fc  08 e6        mov #0x8,r6
8c0747fe  6b 22        or r6,r2
8c074800  24 0f        mov.b r2,@(r0,r15)
8c074802  31 da        mov.l 0x8c0748c8,r10
8c074804  f3 62        mov r15,r2
8c074806  14 72        add #0x14,r2
8c074808  30 de        mov.l 0x8c0748cc,r14
8c07480a  06 e6        mov #0x6,r6
8c07480c  53 98        mov.w 0x8c0748b6,r8
8c07480e  0b 4a        jsr @r10
8c074810  63 61        _mov r6,r1
8c074812  f3 62        mov r15,r2
8c074814  18 72        add #0x18,r2
8c074816  06 e6        mov #0x6,r6
8c074818  03 65        mov r0,r5
8c07481a  0b 4e        jsr @r14
8c07481c  63 61        _mov r6,r1
8c07481e  f3 62        mov r15,r2
8c074820  14 72        add #0x14,r2
8c074822  83 66        mov r8,r6
8c074824  0b 4a        jsr @r10
8c074826  83 61        _mov r8,r1
8c074828  f3 62        mov r15,r2
8c07482a  18 72        add #0x18,r2
8c07482c  03 65        mov r0,r5
8c07482e  83 66        mov r8,r6
8c074830  0b 4e        jsr @r14
8c074832  83 61        _mov r8,r1
8c074834  14 e0        mov #0x14,r0
8c074836  3f 94        mov.w 0x8c0748b8,r4
8c074838  fc 00        mov.b @(r0,r15),r0
8c07483a  43 66        mov r4,r6
8c07483c  43 61        mov r4,r1
8c07483e  10 c8        tst #0x10,r0
8c074840  29 02        movt r2
8c074842  ff 72        add #-0x1,r2
8c074844  2b 65        neg r2,r5
8c074846  f3 62        mov r15,r2
8c074848  18 72        add #0x18,r2
8c07484a  0b 4e        jsr @r14
8c07484c  53 60        _mov r5,r0
8c07484e  14 e0        mov #0x14,r0
8c074850  33 94        mov.w 0x8c0748ba,r4
8c074852  fc 05        mov.b @(r0,r15),r5
8c074854  0f e2        mov #0xf,r2
8c074856  43 66        mov r4,r6
8c074858  43 61        mov r4,r1
8c07485a  29 25        and r2,r5
8c07485c  f3 62        mov r15,r2
8c07485e  18 72        add #0x18,r2
8c074860  0b 4e        jsr @r14
8c074862  53 60        _mov r5,r0
8c074864  1a d2        mov.l 0x8c0748d0,r2
8c074866  93 64        mov r9,r4
8c074868  f7 57        mov.l @(0x1c,r15),r7
8c07486a  22 2f        mov.l r2,@r15
8c07486c  14 d3        mov.l 0x8c0748c0,r3
8c07486e  0b 43        jsr @r3
8c074870  71 1f        _mov.l r7,@(0x4,r15)
8c074872  f3 62        mov r15,r2
8c074874  18 72        add #0x18,r2
8c074876  06 e6        mov #0x6,r6
8c074878  0b 4a        jsr @r10
8c07487a  63 61        _mov r6,r1
8c07487c  f3 62        mov r15,r2
8c07487e  18 72        add #0x18,r2
8c074880  03 6e        mov r0,r14
8c074882  83 66        mov r8,r6
8c074884  0b 4a        jsr @r10
8c074886  83 61        _mov r8,r1
8c074888  03 64        mov r0,r4
8c07488a  18 e0        mov #0x18,r0
8c07488c  fc 00        mov.b @(r0,r15),r0
8c07488e  0f e6        mov #0xf,r6
8c074890  e1 1f        mov.l r14,@(0x4,r15)
8c074892  10 c8        tst #0x10,r0
8c074894  69 20        and r6,r0
8c074896  29 02        movt r2
8c074898  0e d6        mov.l 0x8c0748d4,r6
8c07489a  ff 72        add #-0x1,r2
8c07489c  42 1f        mov.l r4,@(0x8,r15)
8c07489e  2b 65        neg r2,r5
8c0748a0  62 2f        mov.l r6,@r15
8c0748a2  53 1f        mov.l r5,@(0xc,r15)
8c0748a4  93 64        mov r9,r4
8c0748a6  06 d3        mov.l 0x8c0748c0,r3
8c0748a8  0b 43        jsr @r3
8c0748aa  04 1f        _mov.l r0,@(0x10,r15)
8c0748ac  5d af        bra 0x8c07476a
8c0748ae  09 00        _nop
8c0748b0  6c 07        undefined2 076Ch
8c0748b2  ef 00        undefined2 00EFh
8c0748b4  f0 00        undefined2 00F0h
8c0748b6  05 06        undefined2 0605h
8c0748b8  01 0b        undefined2 0B01h
8c0748ba  04 0c        undefined2 0C04h
8c0748bc  20 54 18 8c  addr 8c185420
8c0748c0  58 94 07 8c  addr 8c079458
8c0748c4  68 28 08 8c  addr 8c082868
8c0748c8  e4 e7 09 8c  addr 8c09e7e4
8c0748cc  90 e7 09 8c  addr 8c09e790
8c0748d0  44 54 18 8c  addr 8c185444
8c0748d4  5c 54 18 8c  addr 8c18545c
8c0748d8  3e d6        mov.l 0x8c0749d4,r6
8c0748da  5d 62        extu.w r5,r2
8c0748dc  f7 57        mov.l @(0x1c,r15),r7
8c0748de  93 64        mov r9,r4
8c0748e0  62 2f        mov.l r6,@r15
8c0748e2  21 1f        mov.l r2,@(0x4,r15)
8c0748e4  3c d3        mov.l 0x8c0749d8,r3
8c0748e6  0b 43        jsr @r3
8c0748e8  72 1f        _mov.l r7,@(0x8,r15)
8c0748ea  6c 90        mov.w 0x8c0749c6,r0
8c0748ec  f3 66        mov r15,r6
8c0748ee  3b d2        mov.l 0x8c0749dc,r2
8c0748f0  14 76        add #0x14,r6
8c0748f2  9e 04        mov.l @(r0,r9),r4
8c0748f4  0b 42        jsr @r2
8c0748f6  f7 55        _mov.l @(0x1c,r15),r5
8c0748f8  08 20        tst r0,r0
8c0748fa  0a 89        bt 0x8c074912
8c0748fc  14 e0        mov #0x14,r0
8c0748fe  63 96        mov.w 0x8c0749c8,r6
8c074900  fc 02        mov.b @(r0,r15),r2
8c074902  69 22        and r6,r2
8c074904  10 e6        mov #0x10,r6
8c074906  6b 22        or r6,r2
8c074908  5f 96        mov.w 0x8c0749ca,r6
8c07490a  69 22        and r6,r2
8c07490c  08 e6        mov #0x8,r6
8c07490e  6b 22        or r6,r2
8c074910  24 0f        mov.b r2,@(r0,r15)
8c074912  33 d5        mov.l 0x8c0749e0,r5
8c074914  f3 62        mov r15,r2
8c074916  14 72        add #0x14,r2
8c074918  58 9a        mov.w 0x8c0749cc,r10
8c07491a  06 e6        mov #0x6,r6
8c07491c  63 61        mov r6,r1
8c07491e  0b 45        jsr @r5
8c074920  0f e8        _mov #0xf,r8
8c074922  30 d4        mov.l 0x8c0749e4,r4
8c074924  f3 62        mov r15,r2
8c074926  18 72        add #0x18,r2
8c074928  03 65        mov r0,r5
8c07492a  06 e6        mov #0x6,r6
8c07492c  0b 44        jsr @r4
8c07492e  63 61        _mov r6,r1
8c074930  2b d5        mov.l 0x8c0749e0,r5
8c074932  f3 62        mov r15,r2
8c074934  14 72        add #0x14,r2
8c074936  a3 66        mov r10,r6
8c074938  0b 45        jsr @r5
8c07493a  a3 61        _mov r10,r1
8c07493c  29 d4        mov.l 0x8c0749e4,r4
8c07493e  f3 62        mov r15,r2
8c074940  18 72        add #0x18,r2
8c074942  03 65        mov r0,r5
8c074944  a3 66        mov r10,r6
8c074946  0b 44        jsr @r4
8c074948  a3 61        _mov r10,r1
8c07494a  14 e0        mov #0x14,r0
8c07494c  3f 96        mov.w 0x8c0749ce,r6
8c07494e  fc 00        mov.b @(r0,r15),r0
8c074950  24 d4        mov.l 0x8c0749e4,r4
8c074952  63 61        mov r6,r1
8c074954  10 c8        tst #0x10,r0
8c074956  29 02        movt r2
8c074958  ff 72        add #-0x1,r2
8c07495a  2b 65        neg r2,r5
8c07495c  f3 62        mov r15,r2
8c07495e  18 72        add #0x18,r2
8c074960  0b 44        jsr @r4
8c074962  53 60        _mov r5,r0
8c074964  14 e0        mov #0x14,r0
8c074966  33 96        mov.w 0x8c0749d0,r6
8c074968  fc 05        mov.b @(r0,r15),r5
8c07496a  f3 62        mov r15,r2
8c07496c  1d d4        mov.l 0x8c0749e4,r4
8c07496e  18 72        add #0x18,r2
8c074970  89 25        and r8,r5
8c074972  63 61        mov r6,r1
8c074974  0b 44        jsr @r4
8c074976  53 60        _mov r5,r0
8c074978  1b d2        mov.l 0x8c0749e8,r2
8c07497a  93 64        mov r9,r4
8c07497c  f7 57        mov.l @(0x1c,r15),r7
8c07497e  22 2f        mov.l r2,@r15
8c074980  15 d3        mov.l 0x8c0749d8,r3
8c074982  0b 43        jsr @r3
8c074984  71 1f        _mov.l r7,@(0x4,r15)
8c074986  16 d5        mov.l 0x8c0749e0,r5
8c074988  f3 62        mov r15,r2
8c07498a  18 72        add #0x18,r2
8c07498c  06 e6        mov #0x6,r6
8c07498e  0b 45        jsr @r5
8c074990  63 61        _mov r6,r1
8c074992  13 d5        mov.l 0x8c0749e0,r5
8c074994  f3 62        mov r15,r2
8c074996  18 72        add #0x18,r2
8c074998  03 6e        mov r0,r14
8c07499a  a3 66        mov r10,r6
8c07499c  0b 45        jsr @r5
8c07499e  a3 61        _mov r10,r1
8c0749a0  03 64        mov r0,r4
8c0749a2  18 e0        mov #0x18,r0
8c0749a4  fc 00        mov.b @(r0,r15),r0
8c0749a6  11 d6        mov.l 0x8c0749ec,r6
8c0749a8  10 c8        tst #0x10,r0
8c0749aa  89 20        and r8,r0
8c0749ac  29 02        movt r2
8c0749ae  62 2f        mov.l r6,@r15
8c0749b0  ff 72        add #-0x1,r2
8c0749b2  e1 1f        mov.l r14,@(0x4,r15)
8c0749b4  2b 65        neg r2,r5
8c0749b6  42 1f        mov.l r4,@(0x8,r15)
8c0749b8  53 1f        mov.l r5,@(0xc,r15)
8c0749ba  93 64        mov r9,r4
8c0749bc  06 d3        mov.l 0x8c0749d8,r3
8c0749be  0b 43        jsr @r3
8c0749c0  04 1f        _mov.l r0,@(0x10,r15)
8c0749c2  e6 ae        bra 0x8c074792
8c0749c4  09 00        _nop
8c0749c6  6c 07        undefined2 076Ch
8c0749c8  ef 00        undefined2 00EFh
8c0749ca  f0 00        undefined2 00F0h
8c0749cc  05 06        undefined2 0605h
8c0749ce  01 0b        undefined2 0B01h
8c0749d0  04 0c        undefined2 0C04h
8c0749d2  00           ?? 00h
8c0749d3  00           ?? 00h
8c0749d4  78 54 18 8c  addr 8c185478
8c0749d8  58 94 07 8c  addr 8c079458
8c0749dc  68 28 08 8c  addr 8c082868
8c0749e0  e4 e7 09 8c  addr 8c09e7e4
8c0749e4  90 e7 09 8c  addr 8c09e790
8c0749e8  44 54 18 8c  addr 8c185444
8c0749ec  5c 54 18 8c  addr 8c18545c
8c0749f0  41 d5        mov.l 0x8c074af8,r5
8c0749f2  f3 62        mov r15,r2
8c0749f4  18 72        add #0x18,r2
8c0749f6  06 e6        mov #0x6,r6
8c0749f8  0b 45        jsr @r5
8c0749fa  63 61        _mov r6,r1
8c0749fc  3f d6        mov.l 0x8c074afc,r6
8c0749fe  93 64        mov r9,r4
8c074a00  f7 57        mov.l @(0x1c,r15),r7
8c074a02  62 2f        mov.l r6,@r15
8c074a04  01 1f        mov.l r0,@(0x4,r15)
8c074a06  3e d3        mov.l 0x8c074b00,r3
8c074a08  0b 43        jsr @r3
8c074a0a  72 1f        _mov.l r7,@(0x8,r15)
8c074a0c  6e 90        mov.w 0x8c074aec,r0
8c074a0e  f3 66        mov r15,r6
8c074a10  3c d2        mov.l 0x8c074b04,r2
8c074a12  14 76        add #0x14,r6
8c074a14  9e 04        mov.l @(r0,r9),r4
8c074a16  0b 42        jsr @r2
8c074a18  f7 55        _mov.l @(0x1c,r15),r5
8c074a1a  08 20        tst r0,r0
8c074a1c  0a 89        bt 0x8c074a34
8c074a1e  14 e0        mov #0x14,r0
8c074a20  65 96        mov.w 0x8c074aee,r6
8c074a22  fc 02        mov.b @(r0,r15),r2
8c074a24  69 22        and r6,r2
8c074a26  10 e6        mov #0x10,r6
8c074a28  6b 22        or r6,r2
8c074a2a  61 96        mov.w 0x8c074af0,r6
8c074a2c  69 22        and r6,r2
8c074a2e  08 e6        mov #0x8,r6
8c074a30  6b 22        or r6,r2
8c074a32  24 0f        mov.b r2,@(r0,r15)
8c074a34  30 d8        mov.l 0x8c074af8,r8
8c074a36  f3 62        mov r15,r2
8c074a38  18 72        add #0x18,r2
8c074a3a  06 e6        mov #0x6,r6
8c074a3c  0b 48        jsr @r8
8c074a3e  63 61        _mov r6,r1
8c074a40  f3 62        mov r15,r2
8c074a42  14 72        add #0x14,r2
8c074a44  06 e6        mov #0x6,r6
8c074a46  03 6a        mov r0,r10
8c074a48  0d 6e        extu.w r0,r14
8c074a4a  0b 48        jsr @r8
8c074a4c  63 61        _mov r6,r1
8c074a4e  0d 62        extu.w r0,r2
8c074a50  03 68        mov r0,r8
8c074a52  ff 72        add #-0x1,r2
8c074a54  23 3e        cmp/ge r2,r14
8c074a56  17 8b        bf 0x8c074a88
8c074a58  8d 62        extu.w r8,r2
8c074a5a  ad 66        extu.w r10,r6
8c074a5c  01 72        add #0x1,r2
8c074a5e  23 36        cmp/ge r2,r6
8c074a60  12 8b        bf 0x8c074a88
8c074a62  46 96        mov.w 0x8c074af2,r6
8c074a64  f3 62        mov r15,r2
8c074a66  24 d5        mov.l 0x8c074af8,r5
8c074a68  18 72        add #0x18,r2
8c074a6a  0b 45        jsr @r5
8c074a6c  63 61        _mov r6,r1
8c074a6e  8d 62        extu.w r8,r2
8c074a70  03 65        mov r0,r5
8c074a72  0d 66        extu.w r0,r6
8c074a74  ff 72        add #-0x1,r2
8c074a76  23 36        cmp/ge r2,r6
8c074a78  06 8b        bf 0x8c074a88
8c074a7a  8d 62        extu.w r8,r2
8c074a7c  5d 66        extu.w r5,r6
8c074a7e  01 72        add #0x1,r2
8c074a80  23 36        cmp/ge r2,r6
8c074a82  01 8b        bf 0x8c074a88
8c074a84  61 ae        bra 0x8c07474a
8c074a86  09 00        _nop
8c074a88  1f de        mov.l 0x8c074b08,r14
8c074a8a  f3 62        mov r15,r2
8c074a8c  18 72        add #0x18,r2
8c074a8e  83 60        mov r8,r0
8c074a90  06 e6        mov #0x6,r6
8c074a92  2e 9a        mov.w 0x8c074af2,r10
8c074a94  0b 4e        jsr @r14
8c074a96  63 61        _mov r6,r1
8c074a98  17 d5        mov.l 0x8c074af8,r5
8c074a9a  f3 62        mov r15,r2
8c074a9c  14 72        add #0x14,r2
8c074a9e  a3 66        mov r10,r6
8c074aa0  0b 45        jsr @r5
8c074aa2  a3 61        _mov r10,r1
8c074aa4  f3 62        mov r15,r2
8c074aa6  18 72        add #0x18,r2
8c074aa8  03 65        mov r0,r5
8c074aaa  a3 66        mov r10,r6
8c074aac  0b 4e        jsr @r14
8c074aae  a3 61        _mov r10,r1
8c074ab0  14 e0        mov #0x14,r0
8c074ab2  1f 94        mov.w 0x8c074af4,r4
8c074ab4  fc 00        mov.b @(r0,r15),r0
8c074ab6  43 66        mov r4,r6
8c074ab8  43 61        mov r4,r1
8c074aba  10 c8        tst #0x10,r0
8c074abc  29 02        movt r2
8c074abe  ff 72        add #-0x1,r2
8c074ac0  2b 65        neg r2,r5
8c074ac2  f3 62        mov r15,r2
8c074ac4  18 72        add #0x18,r2
8c074ac6  0b 4e        jsr @r14
8c074ac8  53 60        _mov r5,r0
8c074aca  14 e0        mov #0x14,r0
8c074acc  13 94        mov.w 0x8c074af6,r4
8c074ace  fc 05        mov.b @(r0,r15),r5
8c074ad0  0f e2        mov #0xf,r2
8c074ad2  43 66        mov r4,r6
8c074ad4  43 61        mov r4,r1
8c074ad6  29 25        and r2,r5
8c074ad8  f3 62        mov r15,r2
8c074ada  18 72        add #0x18,r2
8c074adc  0b 4e        jsr @r14
8c074ade  53 60        _mov r5,r0
8c074ae0  33 ae        bra 0x8c07474a
8c074ae2  09 00        _nop
8c074ae4  f2 ac        bra 0x8c0744cc
8c074ae6  a9 25        _and r10,r5
8c074ae8  2a ad        bra 0x8c074540
8c074aea  a9 2e        _and r10,r14
8c074aec  6c 07        undefined2 076Ch
8c074aee  ef 00        undefined2 00EFh
8c074af0  f0 00        undefined2 00F0h
8c074af2  05 06        undefined2 0605h
8c074af4  01 0b        undefined2 0B01h
8c074af6  04 0c        undefined2 0C04h
8c074af8  e4 e7 09 8c  addr 8c09e7e4
8c074afc  20 54 18 8c  addr 8c185420
8c074b00  58 94 07 8c  addr 8c079458
8c074b04  68 28 08 8c  addr 8c082868
8c074b08  90 e7 09 8c  addr 8c09e790
8c074b0c  86           ?? 86h
8c074b0d  2f           ?? 2Fh    /
8c074b0e  96           ?? 96h
8c074b0f  2f           ?? 2Fh    /
8c074b10  a6           ?? A6h
8c074b11  2f           ?? 2Fh    /
8c074b12  b6           ?? B6h
8c074b13  2f           ?? 2Fh    /
8c074b14  c6           ?? C6h
8c074b15  2f           ?? 2Fh    /
8c074b16  d6           ?? D6h
8c074b17  2f           ?? 2Fh    /
8c074b18  e6           ?? E6h
8c074b19  2f           ?? 2Fh    /
8c074b1a  eb           ?? EBh
8c074b1b  ff           ?? FFh
8c074b1c  22           ?? 22h    "
8c074b1d  4f           ?? 4Fh    O
8c074b1e  dc           ?? DCh
8c074b1f  7f           ?? 7Fh    
8c074b20  12           ?? 12h
