; range: 8c07cc60 - 8c07d130

8c07cc60  1c 90        mov.w 0x8c07cc9c,r0
8c07cc62  15 42        cmp/pl r2
8c07cc64  ae 05        mov.l @(r0,r10),r5
8c07cc66  36 8f        bf/s 0x8c07ccd6
8c07cc68  00 e6        _mov #0x0,r6
8c07cc6a  25 a0        bra 0x8c07ccb8
8c07cc6c  09 00        _nop
8c07cc6e  28 0a        undefined2 0A28h
8c07cc70  2c 0a        undefined2 0A2Ch
8c07cc72  38 01        undefined2 0138h
8c07cc74  60 01        undefined2 0160h
8c07cc76  40 0a        undefined2 0A40h
8c07cc78  3c 0a        undefined2 0A3Ch
8c07cc7a  44 0a        undefined2 0A44h
8c07cc7c  48 0a        undefined2 0A48h
8c07cc7e  4c 0a        undefined2 0A4Ch
8c07cc80  88 0a        undefined2 0A88h
8c07cc82  ec 00        undefined2 00ECh
8c07cc84  8c 0a        undefined2 0A8Ch
8c07cc86  94 0a        undefined2 0A94h
8c07cc88  90 0a        undefined2 0A90h
8c07cc8a  98 0a        undefined2 0A98h
8c07cc8c  9c 0a        undefined2 0A9Ch
8c07cc8e  a0 0a        undefined2 0AA0h
8c07cc90  a4 0a        undefined2 0AA4h
8c07cc92  a8 0a        undefined2 0AA8h
8c07cc94  ac 0a        undefined2 0AACh
8c07cc96  b0 0a        undefined2 0AB0h
8c07cc98  f4 15        undefined2 15F4h
8c07cc9a  94 15        undefined2 1594h
8c07cc9c  b4 0a        undefined2 0AB4h
8c07cc9e  00           ?? 00h
8c07cc9f  00           ?? 00h
8c07cca0  fc ed 09 8c  addr 8c09edfc
8c07cca4  ff ff 7f 00  undefined4 007FFFFFh
8c07cca8  38 fc 09 8c  addr 8c09fc38
8c07ccac  3c ed 09 8c  addr 8c09ed3c
8c07ccb0  ba a0 08 8c  addr 8c08a0ba
8c07ccb4  6e 06 09 8c  addr 8c09066e
8c07ccb8  0f ee        mov #0xf,r14
8c07ccba  9f 94        mov.w 0x8c07cdfc,r4
8c07ccbc  91 25        mov.w r9,@r5
8c07ccbe  63 60        mov r6,r0
8c07ccc0  52 81        mov.w r0,@(0x4,r5)
8c07ccc2  01 76        add #0x1,r6
8c07ccc4  59 84        mov.b @(0x9,r5),r0
8c07ccc6  e9 20        and r14,r0
8c07ccc8  59 80        mov.b r0,@(0x9,r5)
8c07ccca  70 e0        mov #0x70,r0
8c07cccc  f7 f5        fmov fr15,@(r0,r5)
8c07ccce  aa 52        mov.l @(0x28,r10),r2
8c07ccd0  23 36        cmp/ge r2,r6
8c07ccd2  f3 8f        bf/s 0x8c07ccbc
8c07ccd4  4c 35        _add r4,r5
8c07ccd6  a8 56        mov.l @(0x20,r10),r6
8c07ccd8  a9 52        mov.l @(0x24,r10),r2
8c07ccda  90 90        mov.w 0x8c07cdfe,r0
8c07ccdc  67 02        mul.l r6,r2
8c07ccde  ae 0e        mov.l @(r0,r10),r14
8c07cce0  1a 04        sts MACL,r4
8c07cce2  43 67        mov r4,r7
8c07cce4  ff 74        add #-0x1,r4
8c07cce6  15 44        cmp/pl r4
8c07cce8  0e 8f        bf/s 0x8c07cd08
8c07ccea  00 e6        _mov #0x0,r6
8c07ccec  e3 65        mov r14,r5
8c07ccee  01 e2        mov #0x1,r2
8c07ccf0  63 60        mov r6,r0
8c07ccf2  02 76        add #0x2,r6
8c07ccf4  43 36        cmp/ge r4,r6
8c07ccf6  91 25        mov.w r9,@r5
8c07ccf8  52 81        mov.w r0,@(0x4,r5)
8c07ccfa  93 60        mov r9,r0
8c07ccfc  5a 81        mov.w r0,@(0x14,r5)
8c07ccfe  23 60        mov r2,r0
8c07cd00  5c 81        mov.w r0,@(0x18,r5)
8c07cd02  02 72        add #0x2,r2
8c07cd04  f4 8f        bf/s 0x8c07ccf0
8c07cd06  28 75        _add #0x28,r5
8c07cd08  73 36        cmp/ge r7,r6
8c07cd0a  07 89        bt 0x8c07cd1c
8c07cd0c  63 62        mov r6,r2
8c07cd0e  08 42        shll2 r2
8c07cd10  6c 32        add r6,r2
8c07cd12  63 60        mov r6,r0
8c07cd14  08 42        shll2 r2
8c07cd16  2c 3e        add r2,r14
8c07cd18  e2 81        mov.w r0,@(0x4,r14)
8c07cd1a  91 2e        mov.w r9,@r14
8c07cd1c  70 90        mov.w 0x8c07ce00,r0
8c07cd1e  00 e5        mov #0x0,r5
8c07cd20  40 e4        mov #0x40,r4
8c07cd22  6e 97        mov.w 0x8c07ce02,r7
8c07cd24  ae 06        mov.l @(r0,r10),r6
8c07cd26  91 26        mov.w r9,@r6
8c07cd28  53 60        mov r5,r0
8c07cd2a  62 81        mov.w r0,@(0x4,r6)
8c07cd2c  10 44        dt r4
8c07cd2e  69 84        mov.b @(0x9,r6),r0
8c07cd30  79 20        and r7,r0
8c07cd32  69 80        mov.b r0,@(0x9,r6)
8c07cd34  93 60        mov r9,r0
8c07cd36  6a 81        mov.w r0,@(0x14,r6)
8c07cd38  53 60        mov r5,r0
8c07cd3a  01 70        add #0x1,r0
8c07cd3c  6c 81        mov.w r0,@(0x18,r6)
8c07cd3e  1d e0        mov #0x1d,r0
8c07cd40  6c 02        mov.b @(r0,r6),r2
8c07cd42  02 75        add #0x2,r5
8c07cd44  79 22        and r7,r2
8c07cd46  24 06        mov.b r2,@(r0,r6)
8c07cd48  ed 8f        bf/s 0x8c07cd26
8c07cd4a  28 76        _add #0x28,r6
8c07cd4c  ab 52        mov.l @(0x2c,r10),r2
8c07cd4e  59 90        mov.w 0x8c07ce04,r0
8c07cd50  15 42        cmp/pl r2
8c07cd52  ae 0d        mov.l @(r0,r10),r13
8c07cd54  0c 8f        bf/s 0x8c07cd70
8c07cd56  00 ee        _mov #0x0,r14
8c07cd58  2e d3        mov.l 0x8c07ce14,r3
8c07cd5a  00 e5        mov #0x0,r5
8c07cd5c  74 e6        mov #0x74,r6
8c07cd5e  0b 43        jsr @r3
8c07cd60  d3 64        _mov r13,r4
8c07cd62  e3 60        mov r14,r0
8c07cd64  d2 81        mov.w r0,@(0x4,r13)
8c07cd66  ab 52        mov.l @(0x2c,r10),r2
8c07cd68  01 7e        add #0x1,r14
8c07cd6a  23 3e        cmp/ge r2,r14
8c07cd6c  f4 8f        bf/s 0x8c07cd58
8c07cd6e  74 7d        _add #0x74,r13
8c07cd70  ac 52        mov.l @(0x30,r10),r2
8c07cd72  48 90        mov.w 0x8c07ce06,r0
8c07cd74  15 42        cmp/pl r2
8c07cd76  ae 05        mov.l @(r0,r10),r5
8c07cd78  09 8f        bf/s 0x8c07cd8e
8c07cd7a  00 e6        _mov #0x0,r6
8c07cd7c  91 25        mov.w r9,@r5
8c07cd7e  63 60        mov r6,r0
8c07cd80  52 81        mov.w r0,@(0x4,r5)
8c07cd82  01 76        add #0x1,r6
8c07cd84  92 15        mov.l r9,@(0x8,r5)
8c07cd86  ac 52        mov.l @(0x30,r10),r2
8c07cd88  23 36        cmp/ge r2,r6
8c07cd8a  f7 8f        bf/s 0x8c07cd7c
8c07cd8c  14 75        _add #0x14,r5
8c07cd8e  aa 55        mov.l @(0x28,r10),r5
8c07cd90  3a 90        mov.w 0x8c07ce08,r0
8c07cd92  15 45        cmp/pl r5
8c07cd94  ae 06        mov.l @(r0,r10),r6
8c07cd96  08 8f        bf/s 0x8c07cdaa
8c07cd98  00 e2        _mov #0x0,r2
8c07cd9a  91 26        mov.w r9,@r6
8c07cd9c  23 60        mov r2,r0
8c07cd9e  62 81        mov.w r0,@(0x4,r6)
8c07cda0  01 72        add #0x1,r2
8c07cda2  aa 55        mov.l @(0x28,r10),r5
8c07cda4  53 32        cmp/ge r5,r2
8c07cda6  f8 8f        bf/s 0x8c07cd9a
8c07cda8  10 76        _add #0x10,r6
8c07cdaa  2e 90        mov.w 0x8c07ce0a,r0
8c07cdac  15 45        cmp/pl r5
8c07cdae  ae 0d        mov.l @(r0,r10),r13
8c07cdb0  0a 8f        bf/s 0x8c07cdc8
8c07cdb2  00 ee        _mov #0x0,r14
8c07cdb4  18 db        mov.l 0x8c07ce18,r11
8c07cdb6  29 9c        mov.w 0x8c07ce0c,r12
8c07cdb8  d3 65        mov r13,r5
8c07cdba  0b 4b        jsr @r11
8c07cdbc  a3 64        _mov r10,r4
8c07cdbe  aa 52        mov.l @(0x28,r10),r2
8c07cdc0  01 7e        add #0x1,r14
8c07cdc2  23 3e        cmp/ge r2,r14
8c07cdc4  f8 8f        bf/s 0x8c07cdb8
8c07cdc6  cc 3d        _add r12,r13
8c07cdc8  21 90        mov.w 0x8c07ce0e,r0
8c07cdca  ae 0d        mov.l @(r0,r10),r13
8c07cdcc  d8 2d        tst r13,r13
8c07cdce  01 8b        bf 0x8c07cdd4
8c07cdd0  51 a1        bra 0x8c07d076
8c07cdd2  09 00        _nop
8c07cdd4  1c 90        mov.w 0x8c07ce10,r0
8c07cdd6  00 e7        mov #0x0,r7
8c07cdd8  f1 51        mov.l @(0x4,r15),r1
8c07cdda  00 e8        mov #0x0,r8
8c07cddc  ae 03        mov.l @(r0,r10),r3
8c07cdde  15 41        cmp/pl r1
8c07cde0  73 1f        mov.l r7,@(0xc,r15)
8c07cde2  02 8d        bt/s 0x8c07cdea
8c07cde4  32 1f        _mov.l r3,@(0x8,r15)
8c07cde6  13 a1        bra 0x8c07d010
8c07cde8  09 00        _nop
8c07cdea  f2 53        mov.l @(0x8,r15),r3
8c07cdec  30 65        mov.b @r3,r5
8c07cdee  5c 65        extu.b r5,r5
8c07cdf0  53 60        mov r5,r0
8c07cdf2  60 88        cmp/eq #0x60,r0
8c07cdf4  16 89        bt 0x8c07ce24
8c07cdf6  5c 60        extu.b r5,r0
8c07cdf8  10 a0        bra 0x8c07ce1c
8c07cdfa  09 00        _nop
8c07cdfc  88 00        undefined2 0088h
8c07cdfe  bc 0a        undefined2 0ABCh
8c07ce00  b8 0a        undefined2 0AB8h
8c07ce02  80 00        undefined2 0080h
8c07ce04  c0 0a        undefined2 0AC0h
8c07ce06  c4 0a        undefined2 0AC4h
8c07ce08  c8 0a        undefined2 0AC8h
8c07ce0a  cc 0a        undefined2 0ACCh
8c07ce0c  94 00        undefined2 0094h
8c07ce0e  d0 0a        undefined2 0AD0h
8c07ce10  88 0a        undefined2 0A88h
8c07ce12  00           ?? 00h
8c07ce13  00           ?? 00h
8c07ce14  fc ed 09 8c  addr 8c09edfc
8c07ce18  54 88 08 8c  addr 8c088854
8c07ce1c  5f 88        cmp/eq #0x5f,r0
8c07ce1e  01 89        bt 0x8c07ce24
8c07ce20  eb a0        bra 0x8c07cffa
8c07ce22  09 00        _nop
8c07ce24  01 e3        mov #0x1,r3
8c07ce26  73 60        mov r7,r0
8c07ce28  31 2d        mov.w r3,@r13
8c07ce2a  83 61        mov r8,r1
8c07ce2c  d2 81        mov.w r0,@(0x4,r13)
8c07ce2e  a8 52        mov.l @(0x20,r10),r2
8c07ce30  62 de        mov.l 0x8c07cfbc,r14
8c07ce32  63 dc        mov.l 0x8c07cfc0,r12
8c07ce34  0b 4e        jsr @r14
8c07ce36  23 60        _mov r2,r0
8c07ce38  0d 60        extu.w r0,r0
8c07ce3a  d3 6e        mov r13,r14
8c07ce3c  02 7e        add #0x2,r14
8c07ce3e  61 db        mov.l 0x8c07cfc4,r11
8c07ce40  06 e1        mov #0x6,r1
8c07ce42  0b 4c        jsr @r12
8c07ce44  e3 62        _mov r14,r2
8c07ce46  a8 52        mov.l @(0x20,r10),r2
8c07ce48  83 61        mov r8,r1
8c07ce4a  0b 4b        jsr @r11
8c07ce4c  23 60        _mov r2,r0
8c07ce4e  b0 91        mov.w 0x8c07cfb2,r1
8c07ce50  0d 60        extu.w r0,r0
8c07ce52  0b 4c        jsr @r12
8c07ce54  e3 62        _mov r14,r2
8c07ce56  d2 84        mov.b @(0x2,r13),r0
8c07ce58  10 e1        mov #0x10,r1
8c07ce5a  ab 93        mov.w 0x8c07cfb4,r3
8c07ce5c  d3 65        mov r13,r5
8c07ce5e  1c 75        add #0x1c,r5
8c07ce60  39 20        and r3,r0
8c07ce62  a8 93        mov.w 0x8c07cfb6,r3
8c07ce64  1b 20        or r1,r0
8c07ce66  39 20        and r3,r0
8c07ce68  08 e1        mov #0x8,r1
8c07ce6a  1b 20        or r1,r0
8c07ce6c  f2 51        mov.l @(0x8,r15),r1
8c07ce6e  d2 80        mov.b r0,@(0x2,r13)
8c07ce70  93 60        mov r9,r0
8c07ce72  d8 80        mov.b r0,@(0x8,r13)
8c07ce74  0f e3        mov #0xf,r3
8c07ce76  d9 84        mov.b @(0x9,r13),r0
8c07ce78  39 20        and r3,r0
8c07ce7a  d9 80        mov.b r0,@(0x9,r13)
8c07ce7c  0c e0        mov #0xc,r0
8c07ce7e  93 15        mov.l r9,@(0xc,r5)
8c07ce80  92 15        mov.l r9,@(0x8,r5)
8c07ce82  91 15        mov.l r9,@(0x4,r5)
8c07ce84  f7 fd        fmov fr15,@(r0,r13)
8c07ce86  10 e0        mov #0x10,r0
8c07ce88  f7 fd        fmov fr15,@(r0,r13)
8c07ce8a  14 e0        mov #0x14,r0
8c07ce8c  92 25        mov.l r9,@r5
8c07ce8e  96 1d        mov.l r9,@(0x18,r13)
8c07ce90  f7 fd        fmov fr15,@(r0,r13)
8c07ce92  10 62        mov.b @r1,r2
8c07ce94  2c 62        extu.b r2,r2
8c07ce96  23 60        mov r2,r0
8c07ce98  5f 88        cmp/eq #0x5f,r0
8c07ce9a  01 89        bt 0x8c07cea0
8c07ce9c  a5 a0        bra 0x8c07cfea
8c07ce9e  09 00        _nop
8c07cea0  8a 90        mov.w 0x8c07cfb8,r0
8c07cea2  83 61        mov r8,r1
8c07cea4  d6 1d        mov.l r13,@(0x18,r13)
8c07cea6  ae 03        mov.l @(r0,r10),r3
8c07cea8  a8 5c        mov.l @(0x20,r10),r12
8c07ceaa  35 1f        mov.l r3,@(0x14,r15)
8c07ceac  43 d3        mov.l 0x8c07cfbc,r3
8c07ceae  0b 43        jsr @r3
8c07ceb0  c3 60        _mov r12,r0
8c07ceb2  44 d3        mov.l 0x8c07cfc4,r3
8c07ceb4  03 6e        mov r0,r14
8c07ceb6  03 6b        mov r0,r11
8c07ceb8  83 61        mov r8,r1
8c07ceba  0b 43        jsr @r3
8c07cebc  c3 60        _mov r12,r0
8c07cebe  c7 00        mul.l r12,r0
8c07cec0  f5 53        mov.l @(0x14,r15),r3
8c07cec2  03 64        mov r0,r4
8c07cec4  1a 02        sts MACL,r2
8c07cec6  ff 73        add #-0x1,r3
8c07cec8  2c 3e        add r2,r14
8c07ceca  e3 60        mov r14,r0
8c07cecc  3c 02        mov.b @(r0,r3),r2
8c07cece  2c 60        extu.b r2,r0
8c07ced0  60 88        cmp/eq #0x60,r0
8c07ced2  1d 8b        bf 0x8c07cf10
8c07ced4  3c d4        mov.l 0x8c07cfc8,r4
8c07ced6  d3 6e        mov r13,r14
8c07ced8  09 7e        add #0x9,r14
8c07ceda  04 e1        mov #0x4,r1
8c07cedc  0b 44        jsr @r4
8c07cede  e3 62        _mov r14,r2
8c07cee0  01 e1        mov #0x1,r1
8c07cee2  3a d3        mov.l 0x8c07cfcc,r3
8c07cee4  1b 20        or r1,r0
8c07cee6  e3 62        mov r14,r2
8c07cee8  0b 43        jsr @r3
8c07ceea  04 e1        _mov #0x4,r1
8c07ceec  64 90        mov.w 0x8c07cfb8,r0
8c07ceee  a8 5c        mov.l @(0x20,r10),r12
8c07cef0  ae 01        mov.l @(r0,r10),r1
8c07cef2  32 d3        mov.l 0x8c07cfbc,r3
8c07cef4  c3 60        mov r12,r0
8c07cef6  15 1f        mov.l r1,@(0x14,r15)
8c07cef8  0b 43        jsr @r3
8c07cefa  83 61        _mov r8,r1
8c07cefc  31 d3        mov.l 0x8c07cfc4,r3
8c07cefe  03 6e        mov r0,r14
8c07cf00  03 6b        mov r0,r11
8c07cf02  83 61        mov r8,r1
8c07cf04  0b 43        jsr @r3
8c07cf06  c3 60        _mov r12,r0
8c07cf08  c7 00        mul.l r12,r0
8c07cf0a  03 64        mov r0,r4
8c07cf0c  1a 02        sts MACL,r2
8c07cf0e  2c 3e        add r2,r14
8c07cf10  f5 53        mov.l @(0x14,r15),r3
8c07cf12  e3 60        mov r14,r0
8c07cf14  01 73        add #0x1,r3
8c07cf16  3c 02        mov.b @(r0,r3),r2
8c07cf18  2c 60        extu.b r2,r0
8c07cf1a  60 88        cmp/eq #0x60,r0
8c07cf1c  1a 8b        bf 0x8c07cf54
8c07cf1e  2a d4        mov.l 0x8c07cfc8,r4
8c07cf20  d3 6e        mov r13,r14
8c07cf22  09 7e        add #0x9,r14
8c07cf24  04 e1        mov #0x4,r1
8c07cf26  0b 44        jsr @r4
8c07cf28  e3 62        _mov r14,r2
8c07cf2a  02 e1        mov #0x2,r1
8c07cf2c  27 d3        mov.l 0x8c07cfcc,r3
8c07cf2e  1b 20        or r1,r0
8c07cf30  e3 62        mov r14,r2
8c07cf32  0b 43        jsr @r3
8c07cf34  04 e1        _mov #0x4,r1
8c07cf36  3f 90        mov.w 0x8c07cfb8,r0
8c07cf38  a8 5c        mov.l @(0x20,r10),r12
8c07cf3a  ae 01        mov.l @(r0,r10),r1
8c07cf3c  1f d3        mov.l 0x8c07cfbc,r3
8c07cf3e  c3 60        mov r12,r0
8c07cf40  15 1f        mov.l r1,@(0x14,r15)
8c07cf42  0b 43        jsr @r3
8c07cf44  83 61        _mov r8,r1
8c07cf46  1f d3        mov.l 0x8c07cfc4,r3
8c07cf48  03 62        mov r0,r2
8c07cf4a  03 6b        mov r0,r11
8c07cf4c  83 61        mov r8,r1
8c07cf4e  0b 43        jsr @r3
8c07cf50  c3 60        _mov r12,r0
8c07cf52  03 64        mov r0,r4
8c07cf54  43 62        mov r4,r2
8c07cf56  ff 72        add #-0x1,r2
8c07cf58  27 0c        mul.l r2,r12
8c07cf5a  f5 53        mov.l @(0x14,r15),r3
8c07cf5c  1a 00        sts MACL,r0
8c07cf5e  bc 30        add r11,r0
8c07cf60  3c 05        mov.b @(r0,r3),r5
8c07cf62  5c 60        extu.b r5,r0
8c07cf64  60 88        cmp/eq #0x60,r0
8c07cf66  1a 8b        bf 0x8c07cf9e
8c07cf68  17 d4        mov.l 0x8c07cfc8,r4
8c07cf6a  d3 6e        mov r13,r14
8c07cf6c  09 7e        add #0x9,r14
8c07cf6e  04 e1        mov #0x4,r1
8c07cf70  0b 44        jsr @r4
8c07cf72  e3 62        _mov r14,r2
8c07cf74  04 e1        mov #0x4,r1
8c07cf76  15 d3        mov.l 0x8c07cfcc,r3
8c07cf78  1b 20        or r1,r0
8c07cf7a  e3 62        mov r14,r2
8c07cf7c  0b 43        jsr @r3
8c07cf7e  04 e1        _mov #0x4,r1
8c07cf80  1a 90        mov.w 0x8c07cfb8,r0
8c07cf82  a8 5c        mov.l @(0x20,r10),r12
8c07cf84  ae 01        mov.l @(r0,r10),r1
8c07cf86  0d d3        mov.l 0x8c07cfbc,r3
8c07cf88  c3 60        mov r12,r0
8c07cf8a  15 1f        mov.l r1,@(0x14,r15)
8c07cf8c  0b 43        jsr @r3
8c07cf8e  83 61        _mov r8,r1
8c07cf90  0c d3        mov.l 0x8c07cfc4,r3
8c07cf92  03 62        mov r0,r2
8c07cf94  03 6b        mov r0,r11
8c07cf96  83 61        mov r8,r1
8c07cf98  0b 43        jsr @r3
8c07cf9a  c3 60        _mov r12,r0
8c07cf9c  03 64        mov r0,r4
8c07cf9e  01 74        add #0x1,r4
8c07cfa0  f5 53        mov.l @(0x14,r15),r3
8c07cfa2  47 0c        mul.l r4,r12
8c07cfa4  1a 00        sts MACL,r0
8c07cfa6  bc 30        add r11,r0
8c07cfa8  3c 05        mov.b @(r0,r3),r5
8c07cfaa  5c 60        extu.b r5,r0
8c07cfac  60 88        cmp/eq #0x60,r0
8c07cfae  0f a0        bra 0x8c07cfd0
8c07cfb0  09 00        _nop
8c07cfb2  05 06        undefined2 0605h
8c07cfb4  ef 00        undefined2 00EFh
8c07cfb6  f0 00        undefined2 00F0h
8c07cfb8  88 0a        undefined2 0A88h
8c07cfba  00           ?? 00h
8c07cfbb  00           ?? 00h
8c07cfbc  b4 e8 09 8c  addr 8c09e8b4
8c07cfc0  90 e7 09 8c  addr 8c09e790
8c07cfc4  00 e8 09 8c  addr 8c09e800
8c07cfc8  c8 e7 09 8c  addr 8c09e7c8
8c07cfcc  bc e5 09 8c  addr 8c09e5bc
8c07cfd0  0b 8b        bf 0x8c07cfea
8c07cfd2  53 d4        mov.l 0x8c07d120,r4
8c07cfd4  d3 6e        mov r13,r14
8c07cfd6  09 7e        add #0x9,r14
8c07cfd8  04 e1        mov #0x4,r1
8c07cfda  0b 44        jsr @r4
8c07cfdc  e3 62        _mov r14,r2
8c07cfde  08 e1        mov #0x8,r1
8c07cfe0  50 d3        mov.l 0x8c07d124,r3
8c07cfe2  1b 20        or r1,r0
8c07cfe4  e3 62        mov r14,r2
8c07cfe6  0b 43        jsr @r3
8c07cfe8  04 e1        _mov #0x4,r1
8c07cfea  4f d2        mov.l 0x8c07d128,r2
8c07cfec  a3 64        mov r10,r4
8c07cfee  d3 65        mov r13,r5
8c07cff0  0b 42        jsr @r2
8c07cff2  2c 7d        _add #0x2c,r13
8c07cff4  f3 57        mov.l @(0xc,r15),r7
8c07cff6  01 77        add #0x1,r7
8c07cff8  73 1f        mov.l r7,@(0xc,r15)
8c07cffa  f2 53        mov.l @(0x8,r15),r3
8c07cffc  01 78        add #0x1,r8
8c07cffe  f1 51        mov.l @(0x4,r15),r1
8c07d000  01 73        add #0x1,r3
8c07d002  13 38        cmp/ge r1,r8
8c07d004  02 8d        bt/s 0x8c07d00c
8c07d006  32 1f        _mov.l r3,@(0x8,r15)
8c07d008  ef ae        bra 0x8c07cdea
8c07d00a  09 00        _nop
8c07d00c  81 90        mov.w 0x8c07d112,r0
8c07d00e  ae 0d        mov.l @(r0,r10),r13
8c07d010  d4 1f        mov.l r13,@(0x10,r15)
8c07d012  f2 64        mov.l @r15,r4
8c07d014  7e 90        mov.w 0x8c07d114,r0
8c07d016  4e 02        mov.l @(r0,r4),r2
8c07d018  15 42        cmp/pl r2
8c07d01a  2c 8f        bf/s 0x8c07d076
8c07d01c  00 ea        _mov #0x0,r10
8c07d01e  40 d8        mov.l 0x8c07d120,r8
8c07d020  f4 59        mov.l @(0x10,r15),r9
8c07d022  93 6b        mov r9,r11
8c07d024  09 7b        add #0x9,r11
8c07d026  04 e1        mov #0x4,r1
8c07d028  0b 48        jsr @r8
8c07d02a  b3 62        _mov r11,r2
8c07d02c  08 20        tst r0,r0
8c07d02e  1b 89        bt 0x8c07d068
8c07d030  04 e1        mov #0x4,r1
8c07d032  0b 48        jsr @r8
8c07d034  b3 62        _mov r11,r2
8c07d036  01 c8        tst #0x1,r0
8c07d038  01 89        bt 0x8c07d03e
8c07d03a  a1 a0        bra 0x8c07d180
8c07d03c  09 00        _nop
8c07d03e  04 e1        mov #0x4,r1
8c07d040  0b 48        jsr @r8
8c07d042  b3 62        _mov r11,r2
8c07d044  02 c8        tst #0x2,r0
8c07d046  01 89        bt 0x8c07d04c
8c07d048  b0 a0        bra 0x8c07d1ac
8c07d04a  09 00        _nop
8c07d04c  04 e1        mov #0x4,r1
8c07d04e  0b 48        jsr @r8
8c07d050  b3 62        _mov r11,r2
8c07d052  04 c8        tst #0x4,r0
8c07d054  01 89        bt 0x8c07d05a
8c07d056  c1 a0        bra 0x8c07d1dc
8c07d058  09 00        _nop
8c07d05a  04 e1        mov #0x4,r1
8c07d05c  0b 48        jsr @r8
8c07d05e  b3 62        _mov r11,r2
8c07d060  08 c8        tst #0x8,r0
8c07d062  01 89        bt 0x8c07d068
8c07d064  d2 a0        bra 0x8c07d20c
8c07d066  09 00        _nop
8c07d068  f2 64        mov.l @r15,r4
8c07d06a  01 7a        add #0x1,r10
8c07d06c  52 90        mov.w 0x8c07d114,r0
8c07d06e  4e 02        mov.l @(r0,r4),r2
8c07d070  23 3a        cmp/ge r2,r10
8c07d072  d6 8f        bf/s 0x8c07d022
8c07d074  2c 79        _add #0x2c,r9
8c07d076  f2 68        mov.l @r15,r8
8c07d078  4d 90        mov.w 0x8c07d116,r0
8c07d07a  8e 0c        mov.l @(r0,r8),r12
8c07d07c  c8 2c        tst r12,r12
8c07d07e  27 89        bt 0x8c07d0d0
8c07d080  f1 53        mov.l @(0x4,r15),r3
8c07d082  00 eb        mov #0x0,r11
8c07d084  48 90        mov.w 0x8c07d118,r0
8c07d086  15 43        cmp/pl r3
8c07d088  8e 0a        mov.l @(r0,r8),r10
8c07d08a  21 8f        bf/s 0x8c07d0d0
8c07d08c  00 e9        _mov #0x0,r9
8c07d08e  8d fe        fldi0 fr14
8c07d090  a0 62        mov.b @r10,r2
8c07d092  2c 62        extu.b r2,r2
8c07d094  23 60        mov r2,r0
8c07d096  63 88        cmp/eq #0x63,r0
8c07d098  02 8f        bf/s 0x8c07d0a0
8c07d09a  00 e6        _mov #0x0,r6
8c07d09c  ce a0        bra 0x8c07d23c
8c07d09e  09 00        _nop
8c07d0a0  23 60        mov r2,r0
8c07d0a2  64 88        cmp/eq #0x64,r0
8c07d0a4  01 8b        bf 0x8c07d0aa
8c07d0a6  c9 a0        bra 0x8c07d23c
8c07d0a8  09 00        _nop
8c07d0aa  23 60        mov r2,r0
8c07d0ac  65 88        cmp/eq #0x65,r0
8c07d0ae  01 8b        bf 0x8c07d0b4
8c07d0b0  c4 a0        bra 0x8c07d23c
8c07d0b2  09 00        _nop
8c07d0b4  23 60        mov r2,r0
8c07d0b6  66 88        cmp/eq #0x66,r0
8c07d0b8  01 8b        bf 0x8c07d0be
8c07d0ba  bf a0        bra 0x8c07d23c
8c07d0bc  09 00        _nop
8c07d0be  68 26        tst r6,r6
8c07d0c0  01 89        bt 0x8c07d0c6
8c07d0c2  fb a0        bra 0x8c07d2bc
8c07d0c4  09 00        _nop
8c07d0c6  f1 53        mov.l @(0x4,r15),r3
8c07d0c8  01 7b        add #0x1,r11
8c07d0ca  33 3b        cmp/ge r3,r11
8c07d0cc  e0 8f        bf/s 0x8c07d090
8c07d0ce  01 7a        _add #0x1,r10
8c07d0d0  23 90        mov.w 0x8c07d11a,r0
8c07d0d2  8e 0e        mov.l @(r0,r8),r14
8c07d0d4  e8 2e        tst r14,r14
8c07d0d6  12 89        bt 0x8c07d0fe
8c07d0d8  f1 59        mov.l @(0x4,r15),r9
8c07d0da  00 e6        mov #0x0,r6
8c07d0dc  1c 90        mov.w 0x8c07d118,r0
8c07d0de  15 49        cmp/pl r9
8c07d0e0  63 1f        mov.l r6,@(0xc,r15)
8c07d0e2  8e 0a        mov.l @(r0,r8),r10
8c07d0e4  0b 8f        bf/s 0x8c07d0fe
8c07d0e6  00 ed        _mov #0x0,r13
8c07d0e8  8d fe        fldi0 fr14
8c07d0ea  a0 62        mov.b @r10,r2
8c07d0ec  2c 60        extu.b r2,r0
8c07d0ee  67 88        cmp/eq #0x67,r0
8c07d0f0  01 8b        bf 0x8c07d0f6
8c07d0f2  ea a0        bra 0x8c07d2ca
8c07d0f4  09 00        _nop
8c07d0f6  01 7d        add #0x1,r13
8c07d0f8  93 3d        cmp/ge r9,r13
8c07d0fa  f6 8f        bf/s 0x8c07d0ea
8c07d0fc  01 7a        _add #0x1,r10
8c07d0fe  0d 90        mov.w 0x8c07d11c,r0
8c07d100  83 64        mov r8,r4
8c07d102  8e 02        mov.l @(r0,r8),r2
8c07d104  3c 72        add #0x3c,r2
8c07d106  22 65        mov.l @r2,r5
8c07d108  22 56        mov.l @(0x8,r2),r6
8c07d10a  0b 46        jsr @r6
8c07d10c  5c 34        _add r5,r4
8c07d10e  0d a0        bra 0x8c07d12c
8c07d110  09 00        _nop
8c07d112  d0 0a        undefined2 0AD0h
8c07d114  50 0a        undefined2 0A50h
8c07d116  d4 0a        undefined2 0AD4h
8c07d118  88 0a        undefined2 0A88h
8c07d11a  d8 0a        undefined2 0AD8h
8c07d11c  e4 0a        undefined2 0AE4h
8c07d11e  00           ?? 00h
8c07d11f  00           ?? 00h
8c07d120  c8 e7 09 8c  addr 8c09e7c8
8c07d124  bc e5 09 8c  addr 8c09e5bc
8c07d128  a8 d8 08 8c  addr 8c08d8a8
8c07d12c  81 56        mov.l @(0x4,r8),r6
8c07d12e  b4 90        mov.w 0x8c07d29a,r0
8c07d130  6c 02        mov.b @(r0,r6),r2
