; range: 8c0dd070 - 8c0dd1e0

8c0dd070  d6 2f        mov.l r13,@-r15
8c0dd072  e6 2f        mov.l r14,@-r15
8c0dd074  22 4f        sts.l PR,@-r15
8c0dd076  f8 7f        add #-0x8,r15
8c0dd078  43 6e        mov r4,r14
8c0dd07a  41 64        mov.w @r4,r4
8c0dd07c  53 d2        mov.l 0x8c0dd1cc,r2
8c0dd07e  54 dd        mov.l 0x8c0dd1d0,r13
8c0dd080  0b 42        jsr @r2
8c0dd082  4d 64        _extu.w r4,r4
8c0dd084  f6 e3        mov #-0xa,r3
8c0dd086  03 62        mov r0,r2
8c0dd088  3c 42        shad r3,r2
8c0dd08a  f2 81        mov.w r0,@(0x4,r15)
8c0dd08c  3f e1        mov #0x3f,r1
8c0dd08e  19 22        and r1,r2
8c0dd090  2d 64        extu.w r2,r4
8c0dd092  f3 62        mov r15,r2
8c0dd094  06 e1        mov #0x6,r1
8c0dd096  0b 4d        jsr @r13
8c0dd098  43 60        _mov r4,r0
8c0dd09a  f2 85        mov.w @(0x4,r15),r0
8c0dd09c  fb e1        mov #-0x5,r1
8c0dd09e  1f e3        mov #0x1f,r3
8c0dd0a0  0d 62        extu.w r0,r2
8c0dd0a2  1c 42        shad r1,r2
8c0dd0a4  8f 91        mov.w 0x8c0dd1c6,r1
8c0dd0a6  39 22        and r3,r2
8c0dd0a8  2d 64        extu.w r2,r4
8c0dd0aa  f3 62        mov r15,r2
8c0dd0ac  0b 4d        jsr @r13
8c0dd0ae  43 60        _mov r4,r0
8c0dd0b0  f2 85        mov.w @(0x4,r15),r0
8c0dd0b2  fc e1        mov #-0x4,r1
8c0dd0b4  01 e3        mov #0x1,r3
8c0dd0b6  0d 62        extu.w r0,r2
8c0dd0b8  1c 42        shad r1,r2
8c0dd0ba  85 91        mov.w 0x8c0dd1c8,r1
8c0dd0bc  39 22        and r3,r2
8c0dd0be  2d 64        extu.w r2,r4
8c0dd0c0  f3 62        mov r15,r2
8c0dd0c2  0b 4d        jsr @r13
8c0dd0c4  43 60        _mov r4,r0
8c0dd0c6  f2 85        mov.w @(0x4,r15),r0
8c0dd0c8  0f e1        mov #0xf,r1
8c0dd0ca  f3 62        mov r15,r2
8c0dd0cc  0d 66        extu.w r0,r6
8c0dd0ce  19 26        and r1,r6
8c0dd0d0  7b 91        mov.w 0x8c0dd1ca,r1
8c0dd0d2  0b 4d        jsr @r13
8c0dd0d4  6d 60        _extu.w r6,r0
8c0dd0d6  f1 62        mov.w @r15,r2
8c0dd0d8  21 2e        mov.w r2,@r14
8c0dd0da  08 7f        add #0x8,r15
8c0dd0dc  26 4f        lds.l @r15+,PR
8c0dd0de  f6 6e        mov.l @r15+,r14
8c0dd0e0  0b 00        rts
8c0dd0e2  f6 6d        _mov.l @r15+,r13
8c0dd0e4  d6 2f        mov.l r13,@-r15
8c0dd0e6  e6 2f        mov.l r14,@-r15
8c0dd0e8  22 4f        sts.l PR,@-r15
8c0dd0ea  3a d5        mov.l 0x8c0dd1d4,r5
8c0dd0ec  06 e1        mov #0x6,r1
8c0dd0ee  43 6d        mov r4,r13
8c0dd0f0  0b 45        jsr @r5
8c0dd0f2  43 62        _mov r4,r2
8c0dd0f4  03 62        mov r0,r2
8c0dd0f6  18 42        shll8 r2
8c0dd0f8  65 91        mov.w 0x8c0dd1c6,r1
8c0dd0fa  08 42        shll2 r2
8c0dd0fc  35 d5        mov.l 0x8c0dd1d4,r5
8c0dd0fe  2d 6e        extu.w r2,r14
8c0dd100  0b 45        jsr @r5
8c0dd102  d3 62        _mov r13,r2
8c0dd104  d0 66        mov.b @r13,r6
8c0dd106  05 e1        mov #0x5,r1
8c0dd108  03 62        mov r0,r2
8c0dd10a  1c 42        shad r1,r2
8c0dd10c  63 60        mov r6,r0
8c0dd10e  10 c8        tst #0x10,r0
8c0dd110  2b 2e        or r2,r14
8c0dd112  29 02        movt r2
8c0dd114  ff 72        add #-0x1,r2
8c0dd116  2b 65        neg r2,r5
8c0dd118  08 45        shll2 r5
8c0dd11a  ed 64        extu.w r14,r4
8c0dd11c  08 45        shll2 r5
8c0dd11e  0f e2        mov #0xf,r2
8c0dd120  5b 24        or r5,r4
8c0dd122  29 26        and r2,r6
8c0dd124  4d 64        extu.w r4,r4
8c0dd126  29 26        and r2,r6
8c0dd128  28 d2        mov.l 0x8c0dd1cc,r2
8c0dd12a  6b 24        or r6,r4
8c0dd12c  0b 42        jsr @r2
8c0dd12e  4d 64        _extu.w r4,r4
8c0dd130  01 2d        mov.w r0,@r13
8c0dd132  26 4f        lds.l @r15+,PR
8c0dd134  f6 6e        mov.l @r15+,r14
8c0dd136  0b 00        rts
8c0dd138  f6 6d        _mov.l @r15+,r13
8c0dd13a  b6           ?? B6h
8c0dd13b  2f           ?? 2Fh    /
8c0dd13c  c6           ?? C6h
8c0dd13d  2f           ?? 2Fh    /
8c0dd13e  d6           ?? D6h
8c0dd13f  2f           ?? 2Fh    /
8c0dd140  e6 2f        mov.l r14,@-r15
8c0dd142  22 4f        sts.l PR,@-r15
8c0dd144  f8 7f        add #-0x8,r15
8c0dd146  43 6d        mov r4,r13
8c0dd148  43 6e        mov r4,r14
8c0dd14a  41 64        mov.w @r4,r4
8c0dd14c  53 6c        mov r5,r12
8c0dd14e  1f d2        mov.l 0x8c0dd1cc,r2
8c0dd150  02 7e        add #0x2,r14
8c0dd152  1f db        mov.l 0x8c0dd1d0,r11
8c0dd154  0b 42        jsr @r2
8c0dd156  4d 64        _extu.w r4,r4
8c0dd158  f6 e3        mov #-0xa,r3
8c0dd15a  03 62        mov r0,r2
8c0dd15c  3c 42        shad r3,r2
8c0dd15e  f2 81        mov.w r0,@(0x4,r15)
8c0dd160  3f e1        mov #0x3f,r1
8c0dd162  19 22        and r1,r2
8c0dd164  2d 64        extu.w r2,r4
8c0dd166  f3 62        mov r15,r2
8c0dd168  06 e1        mov #0x6,r1
8c0dd16a  0b 4b        jsr @r11
8c0dd16c  43 60        _mov r4,r0
8c0dd16e  f2 85        mov.w @(0x4,r15),r0
8c0dd170  fb e1        mov #-0x5,r1
8c0dd172  1f e3        mov #0x1f,r3
8c0dd174  0d 62        extu.w r0,r2
8c0dd176  1c 42        shad r1,r2
8c0dd178  25 91        mov.w 0x8c0dd1c6,r1
8c0dd17a  39 22        and r3,r2
8c0dd17c  2d 64        extu.w r2,r4
8c0dd17e  f3 62        mov r15,r2
8c0dd180  0b 4b        jsr @r11
8c0dd182  43 60        _mov r4,r0
8c0dd184  f2 85        mov.w @(0x4,r15),r0
8c0dd186  fc e1        mov #-0x4,r1
8c0dd188  01 e3        mov #0x1,r3
8c0dd18a  0d 62        extu.w r0,r2
8c0dd18c  1c 42        shad r1,r2
8c0dd18e  1b 91        mov.w 0x8c0dd1c8,r1
8c0dd190  39 22        and r3,r2
8c0dd192  2d 64        extu.w r2,r4
8c0dd194  f3 62        mov r15,r2
8c0dd196  0b 4b        jsr @r11
8c0dd198  43 60        _mov r4,r0
8c0dd19a  f2 85        mov.w @(0x4,r15),r0
8c0dd19c  0f e1        mov #0xf,r1
8c0dd19e  f3 62        mov r15,r2
8c0dd1a0  0d 66        extu.w r0,r6
8c0dd1a2  19 26        and r1,r6
8c0dd1a4  11 91        mov.w 0x8c0dd1ca,r1
8c0dd1a6  0b 4b        jsr @r11
8c0dd1a8  6d 60        _extu.w r6,r0
8c0dd1aa  f1 62        mov.w @r15,r2
8c0dd1ac  21 2d        mov.w r2,@r13
8c0dd1ae  21 2c        mov.w r2,@r12
8c0dd1b0  e4 60        mov.b @r14+,r0
8c0dd1b2  c2 80        mov.b r0,@(0x2,r12)
8c0dd1b4  e0 60        mov.b @r14,r0
8c0dd1b6  c3 80        mov.b r0,@(0x3,r12)
8c0dd1b8  08 7f        add #0x8,r15
8c0dd1ba  26 4f        lds.l @r15+,PR
8c0dd1bc  f6 6e        mov.l @r15+,r14
8c0dd1be  f6 6d        mov.l @r15+,r13
8c0dd1c0  f6 6c        mov.l @r15+,r12
8c0dd1c2  0b 00        rts
8c0dd1c4  f6 6b        _mov.l @r15+,r11
8c0dd1c6  05 06        undefined2 0605h
8c0dd1c8  01 0b        undefined2 0B01h
8c0dd1ca  04 0c        undefined2 0C04h
8c0dd1cc  e0 ec 1e 8c  addr 8c1eece0
8c0dd1d0  90 e7 09 8c  addr 8c09e790
8c0dd1d4  e4 e7 09 8c  addr 8c09e7e4
8c0dd1d8  b6           ?? B6h
8c0dd1d9  2f           ?? 2Fh    /
8c0dd1da  c6           ?? C6h
8c0dd1db  2f           ?? 2Fh    /
8c0dd1dc  d6           ?? D6h
8c0dd1dd  2f           ?? 2Fh    /
8c0dd1de  e6 2f        mov.l r14,@-r15
8c0dd1e0  22 4f        sts.l PR,@-r15
