; range: 8c0f4f00 - 8c0f5050

8c0f4f00  5c e0        mov #0x5c,r0
8c0f4f02  43 6e        mov r4,r14
8c0f4f04  4e 04        mov.l @(r0,r4),r4
8c0f4f06  48 24        tst r4,r4
8c0f4f08  09 89        bt 0x8c0f4f1e
8c0f4f0a  32 d2        mov.l 0x8c0f4fd4,r2
8c0f4f0c  0b 42        jsr @r2
8c0f4f0e  09 00        _nop
8c0f4f10  5c e0        mov #0x5c,r0
8c0f4f12  31 d2        mov.l 0x8c0f4fd8,r2
8c0f4f14  0b 42        jsr @r2
8c0f4f16  ee 04        _mov.l @(r0,r14),r4
8c0f4f18  26 4f        lds.l @r15+,PR
8c0f4f1a  0b 00        rts
8c0f4f1c  f6 6e        _mov.l @r15+,r14
8c0f4f1e  60 e0        mov #0x60,r0
8c0f4f20  ee 04        mov.l @(r0,r14),r4
8c0f4f22  48 24        tst r4,r4
8c0f4f24  f8 89        bt 0x8c0f4f18
8c0f4f26  2d d2        mov.l 0x8c0f4fdc,r2
8c0f4f28  0b 42        jsr @r2
8c0f4f2a  09 00        _nop
8c0f4f2c  60 e0        mov #0x60,r0
8c0f4f2e  2c d2        mov.l 0x8c0f4fe0,r2
8c0f4f30  0b 42        jsr @r2
8c0f4f32  ee 04        _mov.l @(r0,r14),r4
8c0f4f34  f0 af        bra 0x8c0f4f18
8c0f4f36  09 00        _nop
8c0f4f38  d6 2f        mov.l r13,@-r15
8c0f4f3a  e6 2f        mov.l r14,@-r15
8c0f4f3c  22 4f        sts.l PR,@-r15
8c0f4f3e  46 93        mov.w 0x8c0f4fce,r3
8c0f4f40  54 e0        mov #0x54,r0
8c0f4f42  4e 0d        mov.l @(r0,r4),r13
8c0f4f44  43 6e        mov r4,r14
8c0f4f46  3c 3e        add r3,r14
8c0f4f48  08 45        shll2 r5
8c0f4f4a  e3 62        mov r14,r2
8c0f4f4c  5c 32        add r5,r2
8c0f4f4e  d8 2d        tst r13,r13
8c0f4f50  16 8d        bt/s 0x8c0f4f80
8c0f4f52  62 22        _mov.l r6,@r2
8c0f4f54  00 e5        mov #0x0,r5
8c0f4f56  ec 35        add r14,r5
8c0f4f58  00 e4        mov #0x0,r4
8c0f4f5a  04 e7        mov #0x4,r7
8c0f4f5c  52 62        mov.l @r5,r2
8c0f4f5e  28 22        tst r2,r2
8c0f4f60  12 8b        bf 0x8c0f4f88
8c0f4f62  43 62        mov r4,r2
8c0f4f64  01 72        add #0x1,r2
8c0f4f66  08 42        shll2 r2
8c0f4f68  e3 60        mov r14,r0
8c0f4f6a  2e 06        mov.l @(r0,r2),r6
8c0f4f6c  68 26        tst r6,r6
8c0f4f6e  0b 8b        bf 0x8c0f4f88
8c0f4f70  10 47        dt r7
8c0f4f72  02 74        add #0x2,r4
8c0f4f74  f2 8f        bf/s 0x8c0f4f5c
8c0f4f76  08 75        _add #0x8,r5
8c0f4f78  1a d2        mov.l 0x8c0f4fe4,r2
8c0f4f7a  00 e5        mov #0x0,r5
8c0f4f7c  0b 42        jsr @r2
8c0f4f7e  d3 64        _mov r13,r4
8c0f4f80  26 4f        lds.l @r15+,PR
8c0f4f82  f6 6e        mov.l @r15+,r14
8c0f4f84  0b 00        rts
8c0f4f86  f6 6d        _mov.l @r15+,r13
8c0f4f88  16 d2        mov.l 0x8c0f4fe4,r2
8c0f4f8a  01 e5        mov #0x1,r5
8c0f4f8c  0b 42        jsr @r2
8c0f4f8e  d3 64        _mov r13,r4
8c0f4f90  f6 af        bra 0x8c0f4f80
8c0f4f92  09 00        _nop
8c0f4f94  e6 2f        mov.l r14,@-r15
8c0f4f96  eb ff        fmov.s fr14,@-r15
8c0f4f98  22 4f        sts.l PR,@-r15
8c0f4f9a  54 e0        mov #0x54,r0
8c0f4f9c  43 6e        mov r4,r14
8c0f4f9e  4e 04        mov.l @(r0,r4),r4
8c0f4fa0  01 e5        mov #0x1,r5
8c0f4fa2  11 d2        mov.l 0x8c0f4fe8,r2
8c0f4fa4  0b 42        jsr @r2
8c0f4fa6  8d fe        _fldi0 fr14
8c0f4fa8  54 e0        mov #0x54,r0
8c0f4faa  10 d2        mov.l 0x8c0f4fec,r2
8c0f4fac  ee 04        mov.l @(r0,r14),r4
8c0f4fae  02 e5        mov #0x2,r5
8c0f4fb0  ec f4        fmov fr14,fr4
8c0f4fb2  0b 42        jsr @r2
8c0f4fb4  10 74        _add #0x10,r4
8c0f4fb6  0d d2        mov.l 0x8c0f4fec,r2
8c0f4fb8  e3 64        mov r14,r4
8c0f4fba  10 74        add #0x10,r4
8c0f4fbc  ec f4        fmov fr14,fr4
8c0f4fbe  0b 42        jsr @r2
8c0f4fc0  0b e5        _mov #0xb,r5
8c0f4fc2  05 90        mov.w 0x8c0f4fd0,r0
8c0f4fc4  ee 00        mov.l @(r0,r14),r0
8c0f4fc6  26 4f        lds.l @r15+,PR
8c0f4fc8  f9 fe        fmov.s @r15+,fr14
8c0f4fca  0b 00        rts
8c0f4fcc  f6 6e        _mov.l @r15+,r14
8c0f4fce  80 00        undefined2 0080h
8c0f4fd0  a0 00        undefined2 00A0h
8c0f4fd2  00           ?? 00h
8c0f4fd3  00           ?? 00h
8c0f4fd4  58 e0 12 8c  addr 8c12e058
8c0f4fd8  02 e0 12 8c  addr 8c12e002
8c0f4fdc  e4 e6 12 8c  addr 8c12e6e4
8c0f4fe0  90 e6 12 8c  addr 8c12e690
8c0f4fe4  40 c8 12 8c  addr 8c12c840
8c0f4fe8  ae c7 12 8c  addr 8c12c7ae
8c0f4fec  5e ed 04 8c  addr 8c04ed5e
8c0f4ff0  e6 2f        mov.l r14,@-r15
8c0f4ff2  22 4f        sts.l PR,@-r15
8c0f4ff4  54 e0        mov #0x54,r0
8c0f4ff6  43 6e        mov r4,r14
8c0f4ff8  4e 04        mov.l @(r0,r4),r4
8c0f4ffa  48 24        tst r4,r4
8c0f4ffc  18 89        bt 0x8c0f5030
8c0f4ffe  4e d2        mov.l 0x8c0f5138,r2
8c0f5000  0b 42        jsr @r2
8c0f5002  09 00        _nop
8c0f5004  54 e0        mov #0x54,r0
8c0f5006  ee 04        mov.l @(r0,r14),r4
8c0f5008  4a 52        mov.l @(0x28,r4),r2
8c0f500a  24 72        add #0x24,r2
8c0f500c  22 65        mov.l @r2,r5
8c0f500e  22 56        mov.l @(0x8,r2),r6
8c0f5010  0b 46        jsr @r6
8c0f5012  5c 34        _add r5,r4
8c0f5014  54 e0        mov #0x54,r0
8c0f5016  ee 04        mov.l @(r0,r14),r4
8c0f5018  48 24        tst r4,r4
8c0f501a  09 89        bt 0x8c0f5030
8c0f501c  4a 52        mov.l @(0x28,r4),r2
8c0f501e  03 e5        mov #0x3,r5
8c0f5020  0c 72        add #0xc,r2
8c0f5022  22 66        mov.l @r2,r6
8c0f5024  22 57        mov.l @(0x8,r2),r7
8c0f5026  0b 47        jsr @r7
8c0f5028  6c 34        _add r6,r4
8c0f502a  00 e3        mov #0x0,r3
8c0f502c  54 e0        mov #0x54,r0
8c0f502e  36 0e        mov.l r3,@(r0,r14)
8c0f5030  58 e0        mov #0x58,r0
8c0f5032  ee 04        mov.l @(r0,r14),r4
8c0f5034  48 24        tst r4,r4
8c0f5036  18 89        bt 0x8c0f506a
8c0f5038  3f d2        mov.l 0x8c0f5138,r2
8c0f503a  0b 42        jsr @r2
8c0f503c  09 00        _nop
8c0f503e  58 e0        mov #0x58,r0
8c0f5040  ee 04        mov.l @(r0,r14),r4
8c0f5042  4a 52        mov.l @(0x28,r4),r2
8c0f5044  24 72        add #0x24,r2
8c0f5046  22 66        mov.l @r2,r6
8c0f5048  22 55        mov.l @(0x8,r2),r5
8c0f504a  0b 45        jsr @r5
8c0f504c  6c 34        _add r6,r4
8c0f504e  58 e0        mov #0x58,r0
8c0f5050  ee 04        mov.l @(r0,r14),r4
